	.file	"q1.cpp"
	.section	.text.unlikely._ZN3tbb10interface98internal9flag_task7executeEv,"axG",@progbits,_ZN3tbb10interface98internal9flag_task7executeEv,comdat
	.align 2
.LCOLDB0:
	.section	.text._ZN3tbb10interface98internal9flag_task7executeEv,"axG",@progbits,_ZN3tbb10interface98internal9flag_task7executeEv,comdat
.LHOTB0:
	.align 2
	.weak	_ZN3tbb10interface98internal9flag_task7executeEv
	.type	_ZN3tbb10interface98internal9flag_task7executeEv, @function
_ZN3tbb10interface98internal9flag_task7executeEv:
.LFB11499:
	.cfi_startproc
	xorl	%eax, %eax
	ret
	.cfi_endproc
.LFE11499:
	.size	_ZN3tbb10interface98internal9flag_task7executeEv, .-_ZN3tbb10interface98internal9flag_task7executeEv
	.section	.text.unlikely._ZN3tbb10interface98internal9flag_task7executeEv,"axG",@progbits,_ZN3tbb10interface98internal9flag_task7executeEv,comdat
.LCOLDE0:
	.section	.text._ZN3tbb10interface98internal9flag_task7executeEv,"axG",@progbits,_ZN3tbb10interface98internal9flag_task7executeEv,comdat
.LHOTE0:
	.section	.text.unlikely,"ax",@progbits
	.align 2
.LCOLDB1:
	.text
.LHOTB1:
	.align 2
	.type	_ZN3tbb10interface98internal9start_forINS_13blocked_rangeIiEENS_8internal17parallel_for_bodyIZ4mainEUliE_iEEKNS_16auto_partitionerEED2Ev, @function
_ZN3tbb10interface98internal9start_forINS_13blocked_rangeIiEENS_8internal17parallel_for_bodyIZ4mainEUliE_iEEKNS_16auto_partitionerEED2Ev:
.LFB16016:
	.cfi_startproc
	ret
	.cfi_endproc
.LFE16016:
	.size	_ZN3tbb10interface98internal9start_forINS_13blocked_rangeIiEENS_8internal17parallel_for_bodyIZ4mainEUliE_iEEKNS_16auto_partitionerEED2Ev, .-_ZN3tbb10interface98internal9start_forINS_13blocked_rangeIiEENS_8internal17parallel_for_bodyIZ4mainEUliE_iEEKNS_16auto_partitionerEED2Ev
	.section	.text.unlikely
.LCOLDE1:
	.text
.LHOTE1:
	.set	_ZN3tbb10interface98internal9start_forINS_13blocked_rangeIiEENS_8internal17parallel_for_bodyIZ4mainEUliE_iEEKNS_16auto_partitionerEED1Ev,_ZN3tbb10interface98internal9start_forINS_13blocked_rangeIiEENS_8internal17parallel_for_bodyIZ4mainEUliE_iEEKNS_16auto_partitionerEED2Ev
	.section	.text.unlikely
	.align 2
.LCOLDB2:
	.text
.LHOTB2:
	.align 2
	.type	_ZN3tbb10interface98internal9start_forINS_13blocked_rangeIiEENS_8internal17parallel_for_bodyIZZ4mainENKUliE_clEiEUliE_iEEKNS_16auto_partitionerEED2Ev, @function
_ZN3tbb10interface98internal9start_forINS_13blocked_rangeIiEENS_8internal17parallel_for_bodyIZZ4mainENKUliE_clEiEUliE_iEEKNS_16auto_partitionerEED2Ev:
.LFB16020:
	.cfi_startproc
	ret
	.cfi_endproc
.LFE16020:
	.size	_ZN3tbb10interface98internal9start_forINS_13blocked_rangeIiEENS_8internal17parallel_for_bodyIZZ4mainENKUliE_clEiEUliE_iEEKNS_16auto_partitionerEED2Ev, .-_ZN3tbb10interface98internal9start_forINS_13blocked_rangeIiEENS_8internal17parallel_for_bodyIZZ4mainENKUliE_clEiEUliE_iEEKNS_16auto_partitionerEED2Ev
	.section	.text.unlikely
.LCOLDE2:
	.text
.LHOTE2:
	.set	_ZN3tbb10interface98internal9start_forINS_13blocked_rangeIiEENS_8internal17parallel_for_bodyIZZ4mainENKUliE_clEiEUliE_iEEKNS_16auto_partitionerEED1Ev,_ZN3tbb10interface98internal9start_forINS_13blocked_rangeIiEENS_8internal17parallel_for_bodyIZZ4mainENKUliE_clEiEUliE_iEEKNS_16auto_partitionerEED2Ev
	.section	.text.unlikely._ZN3tbb10interface98internal9flag_taskD2Ev,"axG",@progbits,_ZN3tbb10interface98internal9flag_taskD5Ev,comdat
	.align 2
.LCOLDB3:
	.section	.text._ZN3tbb10interface98internal9flag_taskD2Ev,"axG",@progbits,_ZN3tbb10interface98internal9flag_taskD5Ev,comdat
.LHOTB3:
	.align 2
	.weak	_ZN3tbb10interface98internal9flag_taskD2Ev
	.type	_ZN3tbb10interface98internal9flag_taskD2Ev, @function
_ZN3tbb10interface98internal9flag_taskD2Ev:
.LFB16028:
	.cfi_startproc
	ret
	.cfi_endproc
.LFE16028:
	.size	_ZN3tbb10interface98internal9flag_taskD2Ev, .-_ZN3tbb10interface98internal9flag_taskD2Ev
	.section	.text.unlikely._ZN3tbb10interface98internal9flag_taskD2Ev,"axG",@progbits,_ZN3tbb10interface98internal9flag_taskD5Ev,comdat
.LCOLDE3:
	.section	.text._ZN3tbb10interface98internal9flag_taskD2Ev,"axG",@progbits,_ZN3tbb10interface98internal9flag_taskD5Ev,comdat
.LHOTE3:
	.weak	_ZN3tbb10interface98internal9flag_taskD1Ev
	.set	_ZN3tbb10interface98internal9flag_taskD1Ev,_ZN3tbb10interface98internal9flag_taskD2Ev
	.section	.text.unlikely
	.align 2
.LCOLDB4:
	.text
.LHOTB4:
	.align 2
	.type	_ZN3tbb10interface98internal9start_forINS_13blocked_rangeIiEENS_8internal17parallel_for_bodyIZZ4mainENKUliE_clEiEUliE_iEEKNS_16auto_partitionerEE13note_affinityEt, @function
_ZN3tbb10interface98internal9start_forINS_13blocked_rangeIiEENS_8internal17parallel_for_bodyIZZ4mainENKUliE_clEiEUliE_iEEKNS_16auto_partitionerEE13note_affinityEt:
.LFB16055:
	.cfi_startproc
	ret
	.cfi_endproc
.LFE16055:
	.size	_ZN3tbb10interface98internal9start_forINS_13blocked_rangeIiEENS_8internal17parallel_for_bodyIZZ4mainENKUliE_clEiEUliE_iEEKNS_16auto_partitionerEE13note_affinityEt, .-_ZN3tbb10interface98internal9start_forINS_13blocked_rangeIiEENS_8internal17parallel_for_bodyIZZ4mainENKUliE_clEiEUliE_iEEKNS_16auto_partitionerEE13note_affinityEt
	.section	.text.unlikely
.LCOLDE4:
	.text
.LHOTE4:
	.set	_ZN3tbb10interface98internal9start_forINS_13blocked_rangeIiEENS_8internal17parallel_for_bodyIZ4mainEUliE_iEEKNS_16auto_partitionerEE13note_affinityEt,_ZN3tbb10interface98internal9start_forINS_13blocked_rangeIiEENS_8internal17parallel_for_bodyIZZ4mainENKUliE_clEiEUliE_iEEKNS_16auto_partitionerEE13note_affinityEt
	.section	.text.unlikely._ZN3tbb10interface98internal9flag_taskD0Ev,"axG",@progbits,_ZN3tbb10interface98internal9flag_taskD5Ev,comdat
	.align 2
.LCOLDB5:
	.section	.text._ZN3tbb10interface98internal9flag_taskD0Ev,"axG",@progbits,_ZN3tbb10interface98internal9flag_taskD5Ev,comdat
.LHOTB5:
	.align 2
	.weak	_ZN3tbb10interface98internal9flag_taskD0Ev
	.type	_ZN3tbb10interface98internal9flag_taskD0Ev, @function
_ZN3tbb10interface98internal9flag_taskD0Ev:
.LFB16030:
	.cfi_startproc
	movl	$16, %esi
	jmp	_ZdlPvm
	.cfi_endproc
.LFE16030:
	.size	_ZN3tbb10interface98internal9flag_taskD0Ev, .-_ZN3tbb10interface98internal9flag_taskD0Ev
	.section	.text.unlikely._ZN3tbb10interface98internal9flag_taskD0Ev,"axG",@progbits,_ZN3tbb10interface98internal9flag_taskD5Ev,comdat
.LCOLDE5:
	.section	.text._ZN3tbb10interface98internal9flag_taskD0Ev,"axG",@progbits,_ZN3tbb10interface98internal9flag_taskD5Ev,comdat
.LHOTE5:
	.section	.text.unlikely
	.align 2
.LCOLDB6:
	.text
.LHOTB6:
	.align 2
	.type	_ZN3tbb10interface98internal9start_forINS_13blocked_rangeIiEENS_8internal17parallel_for_bodyIZZ4mainENKUliE_clEiEUliE_iEEKNS_16auto_partitionerEED0Ev, @function
_ZN3tbb10interface98internal9start_forINS_13blocked_rangeIiEENS_8internal17parallel_for_bodyIZZ4mainENKUliE_clEiEUliE_iEEKNS_16auto_partitionerEED0Ev:
.LFB16022:
	.cfi_startproc
	movl	$56, %esi
	jmp	_ZdlPvm
	.cfi_endproc
.LFE16022:
	.size	_ZN3tbb10interface98internal9start_forINS_13blocked_rangeIiEENS_8internal17parallel_for_bodyIZZ4mainENKUliE_clEiEUliE_iEEKNS_16auto_partitionerEED0Ev, .-_ZN3tbb10interface98internal9start_forINS_13blocked_rangeIiEENS_8internal17parallel_for_bodyIZZ4mainENKUliE_clEiEUliE_iEEKNS_16auto_partitionerEED0Ev
	.section	.text.unlikely
.LCOLDE6:
	.text
.LHOTE6:
	.section	.text.unlikely
	.align 2
.LCOLDB7:
	.text
.LHOTB7:
	.align 2
	.type	_ZN3tbb10interface98internal9start_forINS_13blocked_rangeIiEENS_8internal17parallel_for_bodyIZ4mainEUliE_iEEKNS_16auto_partitionerEED0Ev, @function
_ZN3tbb10interface98internal9start_forINS_13blocked_rangeIiEENS_8internal17parallel_for_bodyIZ4mainEUliE_iEEKNS_16auto_partitionerEED0Ev:
.LFB16018:
	.cfi_startproc
	movl	$56, %esi
	jmp	_ZdlPvm
	.cfi_endproc
.LFE16018:
	.size	_ZN3tbb10interface98internal9start_forINS_13blocked_rangeIiEENS_8internal17parallel_for_bodyIZ4mainEUliE_iEEKNS_16auto_partitionerEED0Ev, .-_ZN3tbb10interface98internal9start_forINS_13blocked_rangeIiEENS_8internal17parallel_for_bodyIZ4mainEUliE_iEEKNS_16auto_partitionerEED0Ev
	.section	.text.unlikely
.LCOLDE7:
	.text
.LHOTE7:
	.section	.rodata.str1.1,"aMS",@progbits,1
.LC8:
	.string	"basic_string::_M_construct null not valid"
	.section	.text.unlikely
	.align 2
.LCOLDB9:
	.text
.LHOTB9:
	.align 2
	.type	_ZNSt7__cxx1112basic_stringIcSt11char_traitsIcESaIcEEC2EPKcRKS3_.isra.32, @function
_ZNSt7__cxx1112basic_stringIcSt11char_traitsIcESaIcEEC2EPKcRKS3_.isra.32:
.LFB16146:
	.cfi_startproc
	pushq	%r12
	.cfi_def_cfa_offset 16
	.cfi_offset 12, -16
	pushq	%rbp
	.cfi_def_cfa_offset 24
	.cfi_offset 6, -24
	pushq	%rbx
	.cfi_def_cfa_offset 32
	.cfi_offset 3, -32
	subq	$16, %rsp
	.cfi_def_cfa_offset 48
	movq	%fs:40, %rax
	movq	%rax, 8(%rsp)
	xorl	%eax, %eax
	leaq	16(%rdi), %rax
	testq	%rsi, %rsi
	movq	%rax, (%rdi)
	je	.L10
	xorl	%eax, %eax
	orq	$-1, %rcx
	movq	%rdi, %rbx
	movq	%rsi, %rdi
	movq	%rsi, %rbp
	repnz scasb
	notq	%rcx
	decq	%rcx
	cmpq	$15, %rcx
	leaq	(%rsi,%rcx), %r12
	movq	%rcx, (%rsp)
	jbe	.L11
	xorl	%edx, %edx
	movq	%rsp, %rsi
	movq	%rbx, %rdi
	call	_ZNSt7__cxx1112basic_stringIcSt11char_traitsIcESaIcEE9_M_createERmm
	movq	%rax, (%rbx)
	movq	(%rsp), %rax
	movq	%rax, 16(%rbx)
.L11:
	movq	(%rbx), %rdi
	movq	%r12, %rdx
	movq	%rbp, %rsi
	call	_ZNSt7__cxx1112basic_stringIcSt11char_traitsIcESaIcEE13_S_copy_charsEPcPKcS7_
	movq	(%rsp), %rax
	movq	(%rbx), %rdx
	movq	%rax, 8(%rbx)
	movb	$0, (%rdx,%rax)
	movq	8(%rsp), %rax
	xorq	%fs:40, %rax
	je	.L12
	call	__stack_chk_fail
.L10:
	movl	$.LC8, %edi
	call	_ZSt19__throw_logic_errorPKc
.L12:
	addq	$16, %rsp
	.cfi_def_cfa_offset 32
	popq	%rbx
	.cfi_def_cfa_offset 24
	popq	%rbp
	.cfi_def_cfa_offset 16
	popq	%r12
	.cfi_def_cfa_offset 8
	ret
	.cfi_endproc
.LFE16146:
	.size	_ZNSt7__cxx1112basic_stringIcSt11char_traitsIcESaIcEEC2EPKcRKS3_.isra.32, .-_ZNSt7__cxx1112basic_stringIcSt11char_traitsIcESaIcEEC2EPKcRKS3_.isra.32
	.section	.text.unlikely
.LCOLDE9:
	.text
.LHOTE9:
	.section	.text.unlikely._ZN2cv3Mat7releaseEv,"axG",@progbits,_ZN2cv3Mat7releaseEv,comdat
	.align 2
.LCOLDB10:
	.section	.text._ZN2cv3Mat7releaseEv,"axG",@progbits,_ZN2cv3Mat7releaseEv,comdat
.LHOTB10:
	.align 2
	.weak	_ZN2cv3Mat7releaseEv
	.type	_ZN2cv3Mat7releaseEv, @function
_ZN2cv3Mat7releaseEv:
.LFB9188:
	.cfi_startproc
	movq	56(%rdi), %rax
	pushq	%rbx
	.cfi_def_cfa_offset 16
	.cfi_offset 3, -16
	movq	%rdi, %rbx
	testq	%rax, %rax
	je	.L21
	orl	$-1, %edx
	lock xaddl	%edx, 20(%rax)
	decl	%edx
	je	.L18
.L21:
	movq	$0, 56(%rbx)
	movq	$0, 16(%rbx)
	xorl	%eax, %eax
	movq	$0, 40(%rbx)
	movq	$0, 32(%rbx)
	movq	$0, 24(%rbx)
.L20:
	cmpl	%eax, 4(%rbx)
	jle	.L16
	movq	64(%rbx), %rdx
	movl	$0, (%rdx,%rax,4)
	incq	%rax
	jmp	.L20
.L18:
	call	_ZN2cv3Mat10deallocateEv
	jmp	.L21
.L16:
	popq	%rbx
	.cfi_def_cfa_offset 8
	ret
	.cfi_endproc
.LFE9188:
	.size	_ZN2cv3Mat7releaseEv, .-_ZN2cv3Mat7releaseEv
	.section	.text.unlikely._ZN2cv3Mat7releaseEv,"axG",@progbits,_ZN2cv3Mat7releaseEv,comdat
.LCOLDE10:
	.section	.text._ZN2cv3Mat7releaseEv,"axG",@progbits,_ZN2cv3Mat7releaseEv,comdat
.LHOTE10:
	.section	.text.unlikely._ZN2cv3MatD2Ev,"axG",@progbits,_ZN2cv3MatD5Ev,comdat
	.align 2
.LCOLDB11:
	.section	.text._ZN2cv3MatD2Ev,"axG",@progbits,_ZN2cv3MatD5Ev,comdat
.LHOTB11:
	.align 2
	.weak	_ZN2cv3MatD2Ev
	.type	_ZN2cv3MatD2Ev, @function
_ZN2cv3MatD2Ev:
.LFB9174:
	.cfi_startproc
	.cfi_personality 0x3,__gxx_personality_v0
	.cfi_lsda 0x3,.LLSDA9174
	pushq	%rbx
	.cfi_def_cfa_offset 16
	.cfi_offset 3, -16
	movq	%rdi, %rbx
	addq	$80, %rbx
	call	_ZN2cv3Mat7releaseEv
	movq	-8(%rbx), %rdi
	cmpq	%rbx, %rdi
	je	.L26
	popq	%rbx
	.cfi_remember_state
	.cfi_def_cfa_offset 8
	jmp	_ZN2cv8fastFreeEPv
.L26:
	.cfi_restore_state
	popq	%rbx
	.cfi_def_cfa_offset 8
	ret
	.cfi_endproc
.LFE9174:
	.globl	__gxx_personality_v0
	.section	.gcc_except_table._ZN2cv3MatD2Ev,"aG",@progbits,_ZN2cv3MatD5Ev,comdat
.LLSDA9174:
	.byte	0xff
	.byte	0xff
	.byte	0x1
	.uleb128 .LLSDACSE9174-.LLSDACSB9174
.LLSDACSB9174:
.LLSDACSE9174:
	.section	.text._ZN2cv3MatD2Ev,"axG",@progbits,_ZN2cv3MatD5Ev,comdat
	.size	_ZN2cv3MatD2Ev, .-_ZN2cv3MatD2Ev
	.section	.text.unlikely._ZN2cv3MatD2Ev,"axG",@progbits,_ZN2cv3MatD5Ev,comdat
.LCOLDE11:
	.section	.text._ZN2cv3MatD2Ev,"axG",@progbits,_ZN2cv3MatD5Ev,comdat
.LHOTE11:
	.weak	_ZN2cv3MatD1Ev
	.set	_ZN2cv3MatD1Ev,_ZN2cv3MatD2Ev
	.section	.text.unlikely._ZNK2cv3Mat5cloneEv,"axG",@progbits,_ZNK2cv3Mat5cloneEv,comdat
	.align 2
.LCOLDB12:
	.section	.text._ZNK2cv3Mat5cloneEv,"axG",@progbits,_ZNK2cv3Mat5cloneEv,comdat
.LHOTB12:
	.align 2
	.weak	_ZNK2cv3Mat5cloneEv
	.type	_ZNK2cv3Mat5cloneEv, @function
_ZNK2cv3Mat5cloneEv:
.LFB9183:
	.cfi_startproc
	.cfi_personality 0x3,__gxx_personality_v0
	.cfi_lsda 0x3,.LLSDA9183
	pushq	%rbp
	.cfi_def_cfa_offset 16
	.cfi_offset 6, -16
	pushq	%rbx
	.cfi_def_cfa_offset 24
	.cfi_offset 3, -24
	movq	%rdi, %rbx
	movq	%rsi, %rdi
	subq	$40, %rsp
	.cfi_def_cfa_offset 64
	movl	$1124007936, (%rbx)
	movl	$0, 4(%rbx)
	movq	%fs:40, %rax
	movq	%rax, 24(%rsp)
	xorl	%eax, %eax
	leaq	8(%rbx), %rax
	movl	$0, 8(%rbx)
	movl	$0, 12(%rbx)
	movq	$0, 16(%rbx)
	movq	$0, 24(%rbx)
	movq	%rsp, %rsi
	movq	%rax, 64(%rbx)
	leaq	80(%rbx), %rax
	movq	$0, 32(%rbx)
	movq	$0, 40(%rbx)
	movq	$0, 48(%rbx)
	movq	$0, 56(%rbx)
	movq	%rax, 72(%rbx)
	movq	$0, 80(%rbx)
	movq	$0, 88(%rbx)
	movl	$0, 16(%rsp)
	movl	$0, 20(%rsp)
	movl	$33619968, (%rsp)
	movq	%rbx, 8(%rsp)
.LEHB0:
	call	_ZNK2cv3Mat6copyToERKNS_12_OutputArrayE
.LEHE0:
	jmp	.L35
.L32:
	movq	%rax, %rbp
.L30:
	movq	%rbx, %rdi
	call	_ZN2cv3MatD1Ev
	movq	%rbp, %rdi
.LEHB1:
	call	_Unwind_Resume
.LEHE1:
.L35:
	movq	24(%rsp), %rdx
	xorq	%fs:40, %rdx
	movq	%rbx, %rax
	je	.L31
	call	__stack_chk_fail
.L31:
	addq	$40, %rsp
	.cfi_def_cfa_offset 24
	popq	%rbx
	.cfi_def_cfa_offset 16
	popq	%rbp
	.cfi_def_cfa_offset 8
	ret
	.cfi_endproc
.LFE9183:
	.section	.gcc_except_table._ZNK2cv3Mat5cloneEv,"aG",@progbits,_ZNK2cv3Mat5cloneEv,comdat
.LLSDA9183:
	.byte	0xff
	.byte	0xff
	.byte	0x1
	.uleb128 .LLSDACSE9183-.LLSDACSB9183
.LLSDACSB9183:
	.uleb128 .LEHB0-.LFB9183
	.uleb128 .LEHE0-.LEHB0
	.uleb128 .L32-.LFB9183
	.uleb128 0
	.uleb128 .LEHB1-.LFB9183
	.uleb128 .LEHE1-.LEHB1
	.uleb128 0
	.uleb128 0
.LLSDACSE9183:
	.section	.text._ZNK2cv3Mat5cloneEv,"axG",@progbits,_ZNK2cv3Mat5cloneEv,comdat
	.size	_ZNK2cv3Mat5cloneEv, .-_ZNK2cv3Mat5cloneEv
	.section	.text.unlikely._ZNK2cv3Mat5cloneEv,"axG",@progbits,_ZNK2cv3Mat5cloneEv,comdat
.LCOLDE12:
	.section	.text._ZNK2cv3Mat5cloneEv,"axG",@progbits,_ZNK2cv3Mat5cloneEv,comdat
.LHOTE12:
	.section	.text.unlikely
	.align 2
.LCOLDB14:
	.text
.LHOTB14:
	.align 2
	.type	_ZNK3tbb8internal17parallel_for_bodyIZZ4mainENKUliE_clEiEUliE_iEclERKNS_13blocked_rangeIiEE.constprop.58, @function
_ZNK3tbb8internal17parallel_for_bodyIZZ4mainENKUliE_clEiEUliE_iEclERKNS_13blocked_rangeIiEE.constprop.58:
.LFB16185:
	.cfi_startproc
	.cfi_personality 0x3,__gxx_personality_v0
	.cfi_lsda 0x3,.LLSDA16185
	pushq	%r15
	.cfi_def_cfa_offset 16
	.cfi_offset 15, -16
	pushq	%r14
	.cfi_def_cfa_offset 24
	.cfi_offset 14, -24
	pushq	%r13
	.cfi_def_cfa_offset 32
	.cfi_offset 13, -32
	pushq	%r12
	.cfi_def_cfa_offset 40
	.cfi_offset 12, -40
	movq	%rdi, %r12
	pushq	%rbp
	.cfi_def_cfa_offset 48
	.cfi_offset 6, -48
	pushq	%rbx
	.cfi_def_cfa_offset 56
	.cfi_offset 3, -56
	subq	$200, %rsp
	.cfi_def_cfa_offset 256
	movl	12(%rdi), %ebx
	movl	4(%rsi), %ebp
	movq	%fs:40, %rax
	movq	%rax, 184(%rsp)
	xorl	%eax, %eax
	movl	(%rsi), %r14d
	leaq	88(%rsp), %r15
	leal	(%rbx,%rbx,4), %eax
	imull	%ebp, %ebx
	addl	8(%rdi), %ebx
	movl	%eax, 12(%rsp)
	leal	(%rbx,%rbx,4), %ebx
.L38:
	cmpl	%ebp, %r14d
	jle	.L36
	movq	(%r12), %r13
	movq	0(%r13), %rdx
	movq	8(%r13), %rsi
	imull	$5, (%rdx), %edi
	movl	8(%rsi), %ecx
	movl	%ebx, 16(%rsp)
	leal	5(%rdi), %edx
	movl	%edi, 24(%rsp)
	movq	%r15, %rdi
	cmpl	%ecx, %edx
	cmovle	%edx, %ecx
	leal	5(%rbx), %edx
	cmpl	%edx, 12(%rsi)
	cmovle	12(%rsi), %edx
	movq	16(%r13), %rsi
	movl	%ecx, 28(%rsp)
	leaq	16(%rsp), %rcx
	movl	%edx, 20(%rsp)
	leaq	24(%rsp), %rdx
.LEHB2:
	call	_ZN2cv3MatC1ERKS0_RKNS_5RangeES5_
.LEHE2:
	movq	24(%r13), %rax
	xorps	%xmm1, %xmm1
	leaq	64(%rsp), %rsi
	leaq	40(%rsp), %rdi
	movl	$4, %ecx
	movl	(%rax), %edx
	movl	4(%rax), %eax
	movapd	%xmm1, %xmm0
	movl	$0, 80(%rsp)
	movl	$0, 84(%rsp)
	movl	$33619968, 64(%rsp)
	movq	%r15, 72(%rsp)
	movl	%edx, 32(%rsp)
	leaq	32(%rsp), %rdx
	movl	%eax, 36(%rsp)
	movl	$0, 56(%rsp)
	movl	$0, 60(%rsp)
	movl	$16842752, 40(%rsp)
	movq	%r15, 48(%rsp)
.LEHB3:
	call	_ZN2cv12GaussianBlurERKNS_11_InputArrayERKNS_12_OutputArrayENS_5Size_IiEEddi
.LEHE3:
	movq	%r15, %rdi
	incl	%ebp
	call	_ZN2cv3MatD1Ev
	addl	12(%rsp), %ebx
	jmp	.L38
.L41:
	movq	%rax, %rbx
.L39:
	movq	%r15, %rdi
	call	_ZN2cv3MatD1Ev
	movq	%rbx, %rdi
.LEHB4:
	call	_Unwind_Resume
.LEHE4:
.L36:
	movq	184(%rsp), %rax
	xorq	%fs:40, %rax
	je	.L40
	call	__stack_chk_fail
.L40:
	addq	$200, %rsp
	.cfi_def_cfa_offset 56
	popq	%rbx
	.cfi_def_cfa_offset 48
	popq	%rbp
	.cfi_def_cfa_offset 40
	popq	%r12
	.cfi_def_cfa_offset 32
	popq	%r13
	.cfi_def_cfa_offset 24
	popq	%r14
	.cfi_def_cfa_offset 16
	popq	%r15
	.cfi_def_cfa_offset 8
	ret
	.cfi_endproc
.LFE16185:
	.section	.gcc_except_table,"a",@progbits
.LLSDA16185:
	.byte	0xff
	.byte	0xff
	.byte	0x1
	.uleb128 .LLSDACSE16185-.LLSDACSB16185
.LLSDACSB16185:
	.uleb128 .LEHB2-.LFB16185
	.uleb128 .LEHE2-.LEHB2
	.uleb128 0
	.uleb128 0
	.uleb128 .LEHB3-.LFB16185
	.uleb128 .LEHE3-.LEHB3
	.uleb128 .L41-.LFB16185
	.uleb128 0
	.uleb128 .LEHB4-.LFB16185
	.uleb128 .LEHE4-.LEHB4
	.uleb128 0
	.uleb128 0
.LLSDACSE16185:
	.text
	.size	_ZNK3tbb8internal17parallel_for_bodyIZZ4mainENKUliE_clEiEUliE_iEclERKNS_13blocked_rangeIiEE.constprop.58, .-_ZNK3tbb8internal17parallel_for_bodyIZZ4mainENKUliE_clEiEUliE_iEclERKNS_13blocked_rangeIiEE.constprop.58
	.section	.text.unlikely
.LCOLDE14:
	.text
.LHOTE14:
	.section	.text.unlikely._ZN3tbb4task19spawn_root_and_waitERS0_,"axG",@progbits,_ZN3tbb4task19spawn_root_and_waitERS0_,comdat
.LCOLDB15:
	.section	.text._ZN3tbb4task19spawn_root_and_waitERS0_,"axG",@progbits,_ZN3tbb4task19spawn_root_and_waitERS0_,comdat
.LHOTB15:
	.weak	_ZN3tbb4task19spawn_root_and_waitERS0_
	.type	_ZN3tbb4task19spawn_root_and_waitERS0_, @function
_ZN3tbb4task19spawn_root_and_waitERS0_:
.LFB11419:
	.cfi_startproc
	movq	%rdi, %rsi
	movq	-40(%rdi), %rdi
	leaq	-8(%rsi), %rdx
	movq	(%rdi), %rax
	jmp	*16(%rax)
	.cfi_endproc
.LFE11419:
	.size	_ZN3tbb4task19spawn_root_and_waitERS0_, .-_ZN3tbb4task19spawn_root_and_waitERS0_
	.section	.text.unlikely._ZN3tbb4task19spawn_root_and_waitERS0_,"axG",@progbits,_ZN3tbb4task19spawn_root_and_waitERS0_,comdat
.LCOLDE15:
	.section	.text._ZN3tbb4task19spawn_root_and_waitERS0_,"axG",@progbits,_ZN3tbb4task19spawn_root_and_waitERS0_,comdat
.LHOTE15:
	.section	.text.unlikely
	.align 2
.LCOLDB16:
	.text
.LHOTB16:
	.align 2
	.type	_ZNK3tbb8internal17parallel_for_bodyIZ4mainEUliE_iEclERKNS_13blocked_rangeIiEE.constprop.63, @function
_ZNK3tbb8internal17parallel_for_bodyIZ4mainEUliE_iEclERKNS_13blocked_rangeIiEE.constprop.63:
.LFB16180:
	.cfi_startproc
	.cfi_personality 0x3,__gxx_personality_v0
	.cfi_lsda 0x3,.LLSDA16180
	pushq	%r15
	.cfi_def_cfa_offset 16
	.cfi_offset 15, -16
	pushq	%r14
	.cfi_def_cfa_offset 24
	.cfi_offset 14, -24
	movq	%rdi, %r14
	pushq	%r13
	.cfi_def_cfa_offset 32
	.cfi_offset 13, -32
	pushq	%r12
	.cfi_def_cfa_offset 40
	.cfi_offset 12, -40
	pushq	%rbp
	.cfi_def_cfa_offset 48
	.cfi_offset 6, -48
	pushq	%rbx
	.cfi_def_cfa_offset 56
	.cfi_offset 3, -56
	subq	$344, %rsp
	.cfi_def_cfa_offset 400
	movl	4(%rsi), %r12d
	movq	%fs:40, %rax
	movq	%rax, 328(%rsp)
	xorl	%eax, %eax
	movl	(%rsi), %eax
	leaq	72(%rsp), %r13
	movl	%eax, 12(%rsp)
	movl	12(%rdi), %eax
	movl	%eax, %ebp
	movl	%eax, 8(%rsp)
	imull	%r12d, %ebp
	addl	8(%rdi), %ebp
.L49:
	cmpl	%r12d, 12(%rsp)
	jle	.L44
	movq	(%r14), %rax
	leaq	28(%rsp), %rdx
	movl	%ebp, 28(%rsp)
	movq	%rdx, 40(%rsp)
	movq	8(%rax), %rcx
	movq	(%rax), %rdx
	movq	16(%rax), %rax
	movq	%rdx, 48(%rsp)
	movq	%rcx, 56(%rsp)
	movl	$5, %ecx
	movq	%rax, 64(%rsp)
	movl	12(%rdx), %eax
	cltd
	idivl	%ecx
	testl	%eax, %eax
	movl	%eax, %r15d
	jle	.L46
	movq	%r13, %rdi
	movl	$1, 72(%rsp)
	movq	$65538, 200(%rsp)
.LEHB5:
	call	_ZN3tbb18task_group_context4initEv
.LEHE5:
	leaq	32(%rsp), %rdi
	movl	$56, %esi
	movq	%r13, 32(%rsp)
.LEHB6:
	call	_ZNK3tbb8internal32allocate_root_with_context_proxy8allocateEm
.LEHE6:
	movq	%rax, %rbx
	movb	$1, -11(%rax)
	movq	$_ZTVN3tbb10interface98internal9start_forINS_13blocked_rangeIiEENS_8internal17parallel_for_bodyIZZ4mainENKUliE_clEiEUliE_iEEKNS_16auto_partitionerEEE+16, (%rax)
	movl	%r15d, 8(%rax)
	movl	$0, 12(%rax)
	movq	$1, 16(%rax)
	leaq	40(%rsp), %rax
	movl	$0, 32(%rbx)
	movl	$1, 36(%rbx)
	movq	%rax, 24(%rbx)
.LEHB7:
	call	_ZN3tbb8internal36get_initial_auto_partitioner_divisorEv
.LEHE7:
	shrq	$2, %rax
	movl	$0, 48(%rbx)
	movb	$5, 52(%rbx)
	addq	%rax, %rax
	movq	%rbx, %rdi
	movq	%rax, 40(%rbx)
.LEHB8:
	call	_ZN3tbb4task19spawn_root_and_waitERS0_
.LEHE8:
	movq	%r13, %rdi
	call	_ZN3tbb18task_group_contextD1Ev
	jmp	.L46
.L52:
	movq	%rax, %rbp
.L47:
	leaq	32(%rsp), %rdi
	movq	%rbx, %rsi
	movq	%rbp, %rbx
	call	_ZNK3tbb8internal32allocate_root_with_context_proxy4freeERNS_4taskE
	jmp	.L48
.L51:
	movq	%rax, %rbx
.L48:
	movq	%r13, %rdi
	call	_ZN3tbb18task_group_contextD1Ev
	movq	%rbx, %rdi
.LEHB9:
	call	_Unwind_Resume
.LEHE9:
.L46:
	incl	%r12d
	addl	8(%rsp), %ebp
	jmp	.L49
.L44:
	movq	328(%rsp), %rax
	xorq	%fs:40, %rax
	je	.L50
	call	__stack_chk_fail
.L50:
	addq	$344, %rsp
	.cfi_def_cfa_offset 56
	popq	%rbx
	.cfi_def_cfa_offset 48
	popq	%rbp
	.cfi_def_cfa_offset 40
	popq	%r12
	.cfi_def_cfa_offset 32
	popq	%r13
	.cfi_def_cfa_offset 24
	popq	%r14
	.cfi_def_cfa_offset 16
	popq	%r15
	.cfi_def_cfa_offset 8
	ret
	.cfi_endproc
.LFE16180:
	.section	.gcc_except_table
.LLSDA16180:
	.byte	0xff
	.byte	0xff
	.byte	0x1
	.uleb128 .LLSDACSE16180-.LLSDACSB16180
.LLSDACSB16180:
	.uleb128 .LEHB5-.LFB16180
	.uleb128 .LEHE5-.LEHB5
	.uleb128 0
	.uleb128 0
	.uleb128 .LEHB6-.LFB16180
	.uleb128 .LEHE6-.LEHB6
	.uleb128 .L51-.LFB16180
	.uleb128 0
	.uleb128 .LEHB7-.LFB16180
	.uleb128 .LEHE7-.LEHB7
	.uleb128 .L52-.LFB16180
	.uleb128 0
	.uleb128 .LEHB8-.LFB16180
	.uleb128 .LEHE8-.LEHB8
	.uleb128 .L51-.LFB16180
	.uleb128 0
	.uleb128 .LEHB9-.LFB16180
	.uleb128 .LEHE9-.LEHB9
	.uleb128 0
	.uleb128 0
.LLSDACSE16180:
	.text
	.size	_ZNK3tbb8internal17parallel_for_bodyIZ4mainEUliE_iEclERKNS_13blocked_rangeIiEE.constprop.63, .-_ZNK3tbb8internal17parallel_for_bodyIZ4mainEUliE_iEclERKNS_13blocked_rangeIiEE.constprop.63
	.section	.text.unlikely
.LCOLDE16:
	.text
.LHOTE16:
	.section	.text.unlikely._ZN3tbb10interface58internal9task_base5spawnERNS_4taskE,"axG",@progbits,_ZN3tbb10interface58internal9task_base5spawnERNS_4taskE,comdat
	.align 2
.LCOLDB17:
	.section	.text._ZN3tbb10interface58internal9task_base5spawnERNS_4taskE,"axG",@progbits,_ZN3tbb10interface58internal9task_base5spawnERNS_4taskE,comdat
.LHOTB17:
	.align 2
	.weak	_ZN3tbb10interface58internal9task_base5spawnERNS_4taskE
	.type	_ZN3tbb10interface58internal9task_base5spawnERNS_4taskE, @function
_ZN3tbb10interface58internal9task_base5spawnERNS_4taskE:
.LFB11450:
	.cfi_startproc
	movq	%rdi, %rsi
	movq	-40(%rdi), %rdi
	leaq	-8(%rsi), %rdx
	movq	(%rdi), %rax
	jmp	*(%rax)
	.cfi_endproc
.LFE11450:
	.size	_ZN3tbb10interface58internal9task_base5spawnERNS_4taskE, .-_ZN3tbb10interface58internal9task_base5spawnERNS_4taskE
	.section	.text.unlikely._ZN3tbb10interface58internal9task_base5spawnERNS_4taskE,"axG",@progbits,_ZN3tbb10interface58internal9task_base5spawnERNS_4taskE,comdat
.LCOLDE17:
	.section	.text._ZN3tbb10interface58internal9task_base5spawnERNS_4taskE,"axG",@progbits,_ZN3tbb10interface58internal9task_base5spawnERNS_4taskE,comdat
.LHOTE17:
	.section	.text.unlikely._ZN3tbb10interface98internal19auto_partition_type12is_divisibleEv,"axG",@progbits,_ZN3tbb10interface98internal19auto_partition_type12is_divisibleEv,comdat
	.align 2
.LCOLDB18:
	.section	.text._ZN3tbb10interface98internal19auto_partition_type12is_divisibleEv,"axG",@progbits,_ZN3tbb10interface98internal19auto_partition_type12is_divisibleEv,comdat
.LHOTB18:
	.align 2
	.weak	_ZN3tbb10interface98internal19auto_partition_type12is_divisibleEv
	.type	_ZN3tbb10interface98internal19auto_partition_type12is_divisibleEv, @function
_ZN3tbb10interface98internal19auto_partition_type12is_divisibleEv:
.LFB11553:
	.cfi_startproc
	movq	(%rdi), %rdx
	movb	$1, %al
	cmpq	$1, %rdx
	ja	.L56
	xorl	%eax, %eax
	testq	%rdx, %rdx
	je	.L56
	movb	12(%rdi), %dl
	testb	%dl, %dl
	je	.L56
	decl	%edx
	movq	$0, (%rdi)
	movb	$1, %al
	movb	%dl, 12(%rdi)
.L56:
	ret
	.cfi_endproc
.LFE11553:
	.size	_ZN3tbb10interface98internal19auto_partition_type12is_divisibleEv, .-_ZN3tbb10interface98internal19auto_partition_type12is_divisibleEv
	.section	.text.unlikely._ZN3tbb10interface98internal19auto_partition_type12is_divisibleEv,"axG",@progbits,_ZN3tbb10interface98internal19auto_partition_type12is_divisibleEv,comdat
.LCOLDE18:
	.section	.text._ZN3tbb10interface98internal19auto_partition_type12is_divisibleEv,"axG",@progbits,_ZN3tbb10interface98internal19auto_partition_type12is_divisibleEv,comdat
.LHOTE18:
	.section	.text.unlikely._ZN3tbb10interface98internal16allocate_siblingEPNS_4taskEm,"axG",@progbits,_ZN3tbb10interface98internal16allocate_siblingEPNS_4taskEm,comdat
.LCOLDB19:
	.section	.text._ZN3tbb10interface98internal16allocate_siblingEPNS_4taskEm,"axG",@progbits,_ZN3tbb10interface98internal16allocate_siblingEPNS_4taskEm,comdat
.LHOTB19:
	.weak	_ZN3tbb10interface98internal16allocate_siblingEPNS_4taskEm
	.type	_ZN3tbb10interface98internal16allocate_siblingEPNS_4taskEm, @function
_ZN3tbb10interface98internal16allocate_siblingEPNS_4taskEm:
.LFB11686:
	.cfi_startproc
	pushq	%rbp
	.cfi_def_cfa_offset 16
	.cfi_offset 6, -16
	pushq	%rbx
	.cfi_def_cfa_offset 24
	.cfi_offset 3, -24
	movq	%rsi, %rbp
	pushq	%rax
	.cfi_def_cfa_offset 32
	movl	$16, %esi
	movq	%rdi, %rbx
	call	_ZNK3tbb8internal27allocate_continuation_proxy8allocateEm
	movb	$1, -11(%rax)
	movq	$_ZTVN3tbb10interface98internal9flag_taskE+16, (%rax)
	movb	$0, 8(%rax)
	movq	%rbp, %rsi
	movq	%rax, -32(%rbx)
	movq	$2, -24(%rax)
	movq	%rax, %rdi
	popq	%rdx
	.cfi_def_cfa_offset 24
	popq	%rbx
	.cfi_def_cfa_offset 16
	popq	%rbp
	.cfi_def_cfa_offset 8
	jmp	_ZNK3tbb8internal20allocate_child_proxy8allocateEm
	.cfi_endproc
.LFE11686:
	.size	_ZN3tbb10interface98internal16allocate_siblingEPNS_4taskEm, .-_ZN3tbb10interface98internal16allocate_siblingEPNS_4taskEm
	.section	.text.unlikely._ZN3tbb10interface98internal16allocate_siblingEPNS_4taskEm,"axG",@progbits,_ZN3tbb10interface98internal16allocate_siblingEPNS_4taskEm,comdat
.LCOLDE19:
	.section	.text._ZN3tbb10interface98internal16allocate_siblingEPNS_4taskEm,"axG",@progbits,_ZN3tbb10interface98internal16allocate_siblingEPNS_4taskEm,comdat
.LHOTE19:
	.section	.text.unlikely
.LCOLDB20:
	.text
.LHOTB20:
	.globl	_Z3minii
	.type	_Z3minii, @function
_Z3minii:
.LFB14405:
	.cfi_startproc
	cmpl	%esi, %edi
	movl	%esi, %eax
	cmovle	%edi, %eax
	ret
	.cfi_endproc
.LFE14405:
	.size	_Z3minii, .-_Z3minii
	.section	.text.unlikely
.LCOLDE20:
	.text
.LHOTE20:
	.section	.text.unlikely._ZNSt6vectorIiSaIiEE19_M_emplace_back_auxIJiEEEvDpOT_,"axG",@progbits,_ZNSt6vectorIiSaIiEE19_M_emplace_back_auxIJiEEEvDpOT_,comdat
	.align 2
.LCOLDB21:
	.section	.text._ZNSt6vectorIiSaIiEE19_M_emplace_back_auxIJiEEEvDpOT_,"axG",@progbits,_ZNSt6vectorIiSaIiEE19_M_emplace_back_auxIJiEEEvDpOT_,comdat
.LHOTB21:
	.align 2
	.weak	_ZNSt6vectorIiSaIiEE19_M_emplace_back_auxIJiEEEvDpOT_
	.type	_ZNSt6vectorIiSaIiEE19_M_emplace_back_auxIJiEEEvDpOT_, @function
_ZNSt6vectorIiSaIiEE19_M_emplace_back_auxIJiEEEvDpOT_:
.LFB15656:
	.cfi_startproc
	pushq	%r15
	.cfi_def_cfa_offset 16
	.cfi_offset 15, -16
	pushq	%r14
	.cfi_def_cfa_offset 24
	.cfi_offset 14, -24
	movq	%rsi, %r15
	pushq	%r13
	.cfi_def_cfa_offset 32
	.cfi_offset 13, -32
	pushq	%r12
	.cfi_def_cfa_offset 40
	.cfi_offset 12, -40
	movq	%rdi, %r12
	pushq	%rbp
	.cfi_def_cfa_offset 48
	.cfi_offset 6, -48
	pushq	%rbx
	.cfi_def_cfa_offset 56
	.cfi_offset 3, -56
	movl	$1, %ebx
	pushq	%rdx
	.cfi_def_cfa_offset 64
	movq	8(%rdi), %rax
	movabsq	$4611686018427387903, %rdx
	subq	(%rdi), %rax
	sarq	$2, %rax
	cmovne	%rax, %rbx
	addq	%rax, %rbx
	cmpq	%rdx, %rbx
	ja	.L76
	cmpq	%rbx, %rax
	jbe	.L67
.L76:
	movabsq	$4611686018427387903, %rbx
.L72:
	leaq	0(,%rbx,4), %rdi
	call	_Znwm
	movq	%rax, %rbp
.L73:
	movq	(%r12), %r14
	movq	8(%r12), %r13
	movq	%rbp, %rax
	movl	(%r15), %edx
	subq	%r14, %r13
	addq	%r13, %rax
	je	.L69
	movl	%edx, (%rax)
.L69:
	movq	%r13, %rax
	shrq	$2, %rax
	je	.L70
	movq	%r13, %rdx
	movq	%r14, %rsi
	movq	%rbp, %rdi
	call	memmove
.L70:
	testq	%r14, %r14
	leaq	4(%rbp,%r13), %r13
	je	.L71
	movq	%r14, %rdi
	call	_ZdlPv
.L71:
	leaq	0(%rbp,%rbx,4), %rax
	movq	%rbp, (%r12)
	movq	%r13, 8(%r12)
	movq	%rax, 16(%r12)
	popq	%rax
	.cfi_remember_state
	.cfi_def_cfa_offset 56
	popq	%rbx
	.cfi_def_cfa_offset 48
	popq	%rbp
	.cfi_def_cfa_offset 40
	popq	%r12
	.cfi_def_cfa_offset 32
	popq	%r13
	.cfi_def_cfa_offset 24
	popq	%r14
	.cfi_def_cfa_offset 16
	popq	%r15
	.cfi_def_cfa_offset 8
	ret
.L67:
	.cfi_restore_state
	xorl	%ebp, %ebp
	testq	%rbx, %rbx
	je	.L73
	jmp	.L72
	.cfi_endproc
.LFE15656:
	.size	_ZNSt6vectorIiSaIiEE19_M_emplace_back_auxIJiEEEvDpOT_, .-_ZNSt6vectorIiSaIiEE19_M_emplace_back_auxIJiEEEvDpOT_
	.section	.text.unlikely._ZNSt6vectorIiSaIiEE19_M_emplace_back_auxIJiEEEvDpOT_,"axG",@progbits,_ZNSt6vectorIiSaIiEE19_M_emplace_back_auxIJiEEEvDpOT_,comdat
.LCOLDE21:
	.section	.text._ZNSt6vectorIiSaIiEE19_M_emplace_back_auxIJiEEEvDpOT_,"axG",@progbits,_ZNSt6vectorIiSaIiEE19_M_emplace_back_auxIJiEEEvDpOT_,comdat
.LHOTE21:
	.weak	_ZNSt6vectorIiSaIiEE19_M_emplace_back_auxIIiEEEvDpOT_
	.set	_ZNSt6vectorIiSaIiEE19_M_emplace_back_auxIIiEEEvDpOT_,_ZNSt6vectorIiSaIiEE19_M_emplace_back_auxIJiEEEvDpOT_
	.section	.rodata.str1.1
.LC22:
	.string	"../pic.jpg"
.LC24:
	.string	"elapsed time for sequential method: "
.LC25:
	.string	"\n"
.LC26:
	.string	"elapsed time for parallel method: "
.LC27:
	.string	"real image"
.LC28:
	.string	"sequential blured image"
.LC29:
	.string	"parallel blured image"
.LC30:
	.string	"../grey_blurred.png"
.LC31:
	.string	"[ERROR] can not find the image\n"
.LC32:
	.string	"Exception converting image to PNG format: %s\n"
	.section	.text.unlikely
.LCOLDB33:
	.section	.text.startup,"ax",@progbits
.LHOTB33:
	.globl	main
	.type	main, @function
main:
.LFB14402:
	.cfi_startproc
	.cfi_personality 0x3,__gxx_personality_v0
	.cfi_lsda 0x3,.LLSDA14402
	pushq	%r15
	.cfi_def_cfa_offset 16
	.cfi_offset 15, -16
	pushq	%r14
	.cfi_def_cfa_offset 24
	.cfi_offset 14, -24
	movl	$.LC22, %esi
	pushq	%r13
	.cfi_def_cfa_offset 32
	.cfi_offset 13, -32
	pushq	%r12
	.cfi_def_cfa_offset 40
	.cfi_offset 12, -40
	pushq	%rbp
	.cfi_def_cfa_offset 48
	.cfi_offset 6, -48
	pushq	%rbx
	.cfi_def_cfa_offset 56
	.cfi_offset 3, -56
	subq	$920, %rsp
	.cfi_def_cfa_offset 976
	leaq	264(%rsp), %rbp
	leaq	104(%rsp), %rdi
	movl	$1124007936, 264(%rsp)
	movq	%fs:40, %rax
	movq	%rax, 904(%rsp)
	xorl	%eax, %eax
	leaq	8(%rbp), %rax
	movl	$0, 268(%rsp)
	movl	$0, 272(%rsp)
	movl	$0, 276(%rsp)
	movq	$0, 280(%rsp)
	movq	%rax, 328(%rsp)
	leaq	80(%rbp), %rax
	movq	$0, 288(%rsp)
	movq	$0, 296(%rsp)
	movq	$0, 304(%rsp)
	movq	$0, 312(%rsp)
	movq	$0, 320(%rsp)
	movq	%rax, 336(%rsp)
	movq	$0, 344(%rsp)
	movq	$0, 352(%rsp)
.LEHB10:
	call	_ZNSt7__cxx1112basic_stringIcSt11char_traitsIcESaIcEEC2EPKcRKS3_.isra.32
.LEHE10:
	leaq	104(%rsp), %rsi
	leaq	360(%rsp), %rdi
	xorl	%edx, %edx
.LEHB11:
	call	_ZN2cv6imreadERKNSt7__cxx1112basic_stringIcSt11char_traitsIcESaIcEEEi
.LEHE11:
	movq	%rbp, %rdi
.LEHB12:
	call	_ZN2cv3Mat7releaseEv
	movl	360(%rsp), %eax
	movq	336(%rsp), %rdi
	movl	%eax, 264(%rsp)
	movl	364(%rsp), %eax
	movl	%eax, 268(%rsp)
	movl	368(%rsp), %eax
	movl	%eax, 272(%rsp)
	movl	372(%rsp), %eax
	movl	%eax, 276(%rsp)
	movq	376(%rsp), %rax
	movq	%rax, 280(%rsp)
	movq	384(%rsp), %rax
	movq	%rax, 288(%rsp)
	movq	392(%rsp), %rax
	movq	%rax, 296(%rsp)
	movq	400(%rsp), %rax
	movq	%rax, 304(%rsp)
	movq	408(%rsp), %rax
	movq	%rax, 312(%rsp)
	movq	416(%rsp), %rax
	movq	%rax, 320(%rsp)
	leaq	80(%rbp), %rax
	cmpq	%rax, %rdi
	je	.L89
	call	_ZN2cv8fastFreeEPv
.LEHE12:
	leaq	80(%rbp), %rax
	movq	%rax, 336(%rsp)
	leaq	8(%rbp), %rax
	movq	%rax, 328(%rsp)
.L89:
	cmpl	$2, 364(%rsp)
	jg	.L90
	movq	432(%rsp), %rdx
	movq	336(%rsp), %rax
	movq	(%rdx), %rcx
	movq	%rcx, (%rax)
	movq	8(%rdx), %rdx
	movq	%rdx, 8(%rax)
	jmp	.L91
.L90:
	movq	432(%rsp), %rax
	movq	%rax, 336(%rsp)
	movq	424(%rsp), %rax
	movq	%rax, 328(%rsp)
	leaq	440(%rsp), %rax
	movq	%rax, 432(%rsp)
	leaq	368(%rsp), %rax
	movq	%rax, 424(%rsp)
.L91:
	leaq	360(%rsp), %rdi
	movl	$1124007936, 360(%rsp)
	movl	$0, 372(%rsp)
	movl	$0, 368(%rsp)
	movl	$0, 364(%rsp)
	leaq	456(%rsp), %r14
	movq	$0, 376(%rsp)
	movq	$0, 384(%rsp)
	movq	$0, 392(%rsp)
	movq	$0, 400(%rsp)
	movq	$0, 408(%rsp)
	movq	$0, 416(%rsp)
	call	_ZN2cv3MatD1Ev
	leaq	104(%rsp), %rdi
	call	_ZNSt7__cxx1112basic_stringIcSt11char_traitsIcESaIcEE10_M_disposeEv
	movq	%rbp, %rsi
	movq	%r14, %rdi
.LEHB13:
	call	_ZNK2cv3Mat5cloneEv
.LEHE13:
	leaq	552(%rsp), %r13
	movq	%rbp, %rsi
	movq	%r13, %rdi
.LEHB14:
	call	_ZNK2cv3Mat5cloneEv
.LEHE14:
	leaq	648(%rsp), %rbx
	xorl	%r12d, %r12d
	call	clock
	movq	%rax, 8(%rsp)
.L95:
	cmpl	272(%rsp), %r12d
	jge	.L92
	xorl	%ecx, %ecx
.L94:
	movl	276(%rsp), %edx
	leal	5(%r12), %eax
	cmpl	%edx, %ecx
	jge	.L93
	leal	5(%rcx), %r15d
	cmpl	%eax, 272(%rsp)
	movl	%ecx, 48(%rsp)
	cmovle	272(%rsp), %eax
	leaq	48(%rsp), %rcx
	movq	%r14, %rsi
	cmpl	%r15d, %edx
	movq	%rbx, %rdi
	movl	%r12d, 40(%rsp)
	cmovg	%r15d, %edx
	movl	%edx, 52(%rsp)
	leaq	40(%rsp), %rdx
	movl	%eax, 44(%rsp)
.LEHB15:
	call	_ZN2cv3MatC1ERKS0_RKNS_5RangeES5_
.LEHE15:
	xorps	%xmm1, %xmm1
	leaq	32(%rsp), %rdx
	leaq	80(%rsp), %rsi
	leaq	56(%rsp), %rdi
	movl	$4, %ecx
	movl	$5, 32(%rsp)
	movl	$5, 36(%rsp)
	movapd	%xmm1, %xmm0
	movl	$0, 96(%rsp)
	movl	$0, 100(%rsp)
	movl	$33619968, 80(%rsp)
	movq	%rbx, 88(%rsp)
	movl	$0, 72(%rsp)
	movl	$0, 76(%rsp)
	movl	$16842752, 56(%rsp)
	movq	%rbx, 64(%rsp)
.LEHB16:
	call	_ZN2cv12GaussianBlurERKNS_11_InputArrayERKNS_12_OutputArrayENS_5Size_IiEEddi
.LEHE16:
	movq	%rbx, %rdi
	call	_ZN2cv3MatD1Ev
	movl	%r15d, %ecx
	jmp	.L94Gaussia
.L93:
	movl	%eax, %r12d
	jmp	.L95
.L92:
	call	clock
	subq	8(%rsp), %rax
	movsd	.LC23(%rip), %xmm1
	movl	$.LC24, %esi
	movl	$_ZSt4cout, %edi
	movsd	%xmm1, 24(%rsp)
	cvtsi2sdq	%rax, %xmm0
	divsd	%xmm1, %xmm0
	movsd	%xmm0, 8(%rsp)
.LEHB17:
	call	_ZStlsISt11char_traitsIcEERSt13basic_ostreamIcT_ES5_PKc
	movsd	8(%rsp), %xmm0
	movq	%rax, %rdi
	call	_ZNSo9_M_insertIdEERSoT_
	movl	$.LC25, %esi
	movq	%rax, %rdi
	call	_ZStlsISt11char_traitsIcEERSt13basic_ostreamIcT_ES5_PKc
	call	clock
	movq	%rax, 16(%rsp)
	leaq	32(%rsp), %rax
	movl	$5, %ecx
	movl	$5, 32(%rsp)
	movl	$5, 36(%rsp)
	leaq	80(%rsp), %r12
	movq	%rax, 96(%rsp)
	movl	272(%rsp), %eax
	movq	%rbp, 80(%rsp)
	movq	%r13, 88(%rsp)
	cltd
	idivl	%ecx
	testl	%eax, %eax
	movl	%eax, 8(%rsp)
	jle	.L96
	leaq	648(%rsp), %r15
	movl	$1, 648(%rsp)
	movq	$65538, 776(%rsp)
	movq	%r15, %rdi
	call	_ZN3tbb18task_group_context4initEv
.LEHE17:
	leaq	56(%rsp), %rdi
	movl	$56, %esi
	movq	%r15, 56(%rsp)
.LEHB18:
	call	_ZNK3tbb8internal32allocate_root_with_context_proxy8allocateEm
.LEHE18:
	movq	%rax, %rbx
	movb	$1, -11(%rax)
	movq	$_ZTVN3tbb10interface98internal9start_forINS_13blocked_rangeIiEENS_8internal17parallel_for_bodyIZ4mainEUliE_iEEKNS_16auto_partitionerEEE+16, (%rax)
	movl	8(%rsp), %eax
	movl	$0, 12(%rbx)
	movq	$1, 16(%rbx)
	movq	%r12, 24(%rbx)
	movl	$0, 32(%rbx)
	movl	$1, 36(%rbx)
	movl	%eax, 8(%rbx)
.LEHB19:
	call	_ZN3tbb8internal36get_initial_auto_partitioner_divisorEv
.LEHE19:
	shrq	$2, %rax
	movl	$0, 48(%rbx)
	movb	$5, 52(%rbx)
	addq	%rax, %rax
	movq	%rbx, %rdi
	movq	%rax, 40(%rbx)
.LEHB20:
	call	_ZN3tbb4task19spawn_root_and_waitERS0_
.LEHE20:
	movq	%r15, %rdi
	call	_ZN3tbb18task_group_contextD1Ev
	jmp	.L96
.L142:
	movq	%rax, %r12
.L97:
	leaq	56(%rsp), %rdi
	movq	%rbx, %rsi
	movq	%r12, %rbx
	call	_ZNK3tbb8internal32allocate_root_with_context_proxy4freeERNS_4taskE
	jmp	.L98
.L141:
	movq	%rax, %rbx
.L98:
	movq	%r15, %rdi
	call	_ZN3tbb18task_group_contextD1Ev
	jmp	.L99
.L96:
	call	clock
	subq	16(%rsp), %rax
	movl	$.LC26, %esi
	movl	$_ZSt4cout, %edi
	cvtsi2sdq	%rax, %xmm0
	divsd	24(%rsp), %xmm0
	movsd	%xmm0, 8(%rsp)
.LEHB21:
	call	_ZStlsISt11char_traitsIcEERSt13basic_ostreamIcT_ES5_PKc
	movsd	8(%rsp), %xmm0
	movq	%rax, %rdi
	call	_ZNSo9_M_insertIdEERSoT_
	movl	$.LC25, %esi
	movq	%rax, %rdi
	call	_ZStlsISt11char_traitsIcEERSt13basic_ostreamIcT_ES5_PKc
	leaq	136(%rsp), %rdi
	movl	$.LC27, %esi
	movl	$0, 96(%rsp)
	movl	$0, 100(%rsp)
	movl	$16842752, 80(%rsp)
	movq	%rbp, 88(%rsp)
	call	_ZNSt7__cxx1112basic_stringIcSt11char_traitsIcESaIcEEC2EPKcRKS3_.isra.32
.LEHE21:
	leaq	136(%rsp), %rdi
	movq	%r12, %rsi
.LEHB22:
	call	_ZN2cv6imshowERKNSt7__cxx1112basic_stringIcSt11char_traitsIcESaIcEEERKNS_11_InputArrayE
.LEHE22:
	leaq	136(%rsp), %rdi
	call	_ZNSt7__cxx1112basic_stringIcSt11char_traitsIcESaIcEE10_M_disposeEv
	leaq	168(%rsp), %rdi
	movl	$.LC28, %esi
	movl	$0, 96(%rsp)
	movl	$0, 100(%rsp)
	movl	$16842752, 80(%rsp)
	movq	%r14, 88(%rsp)
.LEHB23:
	call	_ZNSt7__cxx1112basic_stringIcSt11char_traitsIcESaIcEEC2EPKcRKS3_.isra.32
.LEHE23:
	leaq	168(%rsp), %rdi
	movq	%r12, %rsi
.LEHB24:
	call	_ZN2cv6imshowERKNSt7__cxx1112basic_stringIcSt11char_traitsIcESaIcEEERKNS_11_InputArrayE
.LEHE24:
	leaq	168(%rsp), %rdi
	call	_ZNSt7__cxx1112basic_stringIcSt11char_traitsIcESaIcEE10_M_disposeEv
	leaq	200(%rsp), %rdi
	movl	$.LC29, %esi
	movl	$0, 96(%rsp)
	movl	$0, 100(%rsp)
	movl	$16842752, 80(%rsp)
	movq	%r13, 88(%rsp)
.LEHB25:
	call	_ZNSt7__cxx1112basic_stringIcSt11char_traitsIcESaIcEEC2EPKcRKS3_.isra.32
.LEHE25:
	leaq	200(%rsp), %rdi
	movq	%r12, %rsi
.LEHB26:
	call	_ZN2cv6imshowERKNSt7__cxx1112basic_stringIcSt11char_traitsIcESaIcEEERKNS_11_InputArrayE
.LEHE26:
	leaq	200(%rsp), %rdi
	call	_ZNSt7__cxx1112basic_stringIcSt11char_traitsIcESaIcEE10_M_disposeEv
	xorl	%edi, %edi
.LEHB27:
	call	_ZN2cv7waitKeyEi
.LEHE27:
	leaq	56(%rsp), %rdi
	movq	%r12, %rsi
	movq	$0, 56(%rsp)
	movq	$0, 64(%rsp)
	movq	$0, 72(%rsp)
	movl	$16, 80(%rsp)
.LEHB28:
	call	_ZNSt6vectorIiSaIiEE19_M_emplace_back_auxIJiEEEvDpOT_
	movq	64(%rsp), %rax
	cmpq	72(%rsp), %rax
	movl	$9, 80(%rsp)
	je	.L100
	testq	%rax, %rax
	je	.L101
	movl	$9, (%rax)
.L101:
	addq	$4, %rax
	movq	%rax, 64(%rsp)
	jmp	.L102
.L100:
	leaq	56(%rsp), %rdi
	movq	%r12, %rsi
	call	_ZNSt6vectorIiSaIiEE19_M_emplace_back_auxIJiEEEvDpOT_
.LEHE28:
.L102:
	leaq	232(%rsp), %rdi
	movl	$.LC30, %esi
	movl	$0, 96(%rsp)
	movl	$0, 100(%rsp)
	movl	$16842752, 80(%rsp)
	movq	%r13, 88(%rsp)
.LEHB29:
	call	_ZNSt7__cxx1112basic_stringIcSt11char_traitsIcESaIcEEC2EPKcRKS3_.isra.32
.LEHE29:
	leaq	56(%rsp), %rdx
	leaq	232(%rsp), %rdi
	movq	%r12, %rsi
.LEHB30:
	call	_ZN2cv7imwriteERKNSt7__cxx1112basic_stringIcSt11char_traitsIcESaIcEEERKNS_11_InputArrayERKSt6vectorIiSaIiEE
.LEHE30:
	leaq	232(%rsp), %rdi
	xorl	%ebx, %ebx
	call	_ZNSt7__cxx1112basic_stringIcSt11char_traitsIcESaIcEE10_M_disposeEv
.L121:
	movq	56(%rsp), %rdi
	testq	%rdi, %rdi
	je	.L103
	call	_ZdlPv
.L103:
	movq	%r13, %rdi
	call	_ZN2cv3MatD1Ev
	movq	%r14, %rdi
	call	_ZN2cv3MatD1Ev
.L110:
	movq	%rbp, %rdi
	call	_ZN2cv3MatD1Ev
	movq	904(%rsp), %rcx
	xorq	%fs:40, %rcx
	movl	%ebx, %eax
	je	.L125
	call	__stack_chk_fail
.L128:
	movq	%rax, %r12
	movq	%rdx, %rbx
.L104:
	leaq	360(%rsp), %rdi
	call	_ZN2cv3MatD1Ev
	jmp	.L105
.L127:
	movq	%rax, %r12
	movq	%rdx, %rbx
.L105:
	leaq	104(%rsp), %rdi
	call	_ZNSt7__cxx1112basic_stringIcSt11char_traitsIcESaIcEE10_M_disposeEv
	movq	%r12, %rax
	movq	%rbx, %rdx
	jmp	.L106
.L126:
.L106:
	decq	%rdx
	movq	%rax, %rbx
	jne	.L109
	movq	%rax, %rdi
	call	__cxa_begin_catch
	movl	$.LC31, %esi
	movl	$_ZSt4cout, %edi
.LEHB31:
	call	_ZStlsISt11char_traitsIcEERSt13basic_ostreamIcT_ES5_PKc
.LEHE31:
	call	__cxa_end_catch
	movl	$1, %ebx
	jmp	.L110
.L130:
	movq	%rax, %rbx
.L111:
	call	__cxa_end_catch
	jmp	.L109
.L132:
	movq	%rax, %r12
.L112:
	movq	%rbx, %rdi
	movq	%r12, %rbx
	call	_ZN2cv3MatD1Ev
	jmp	.L99
.L134:
	movq	%rax, %rbx
.L113:
	leaq	136(%rsp), %rdi
	jmp	.L154
.L135:
	movq	%rax, %rbx
.L114:
	leaq	168(%rsp), %rdi
	jmp	.L154
.L136:
	movq	%rax, %rbx
.L115:
	leaq	200(%rsp), %rdi
.L154:
	call	_ZNSt7__cxx1112basic_stringIcSt11char_traitsIcESaIcEE10_M_disposeEv
	jmp	.L99
.L139:
	movq	%rax, %r12
	movq	%rdx, %rbx
.L116:
	leaq	232(%rsp), %rdi
	call	_ZNSt7__cxx1112basic_stringIcSt11char_traitsIcESaIcEE10_M_disposeEv
	movq	%r12, %rax
	movq	%rbx, %rdx
	jmp	.L117
.L138:
.L117:
	decq	%rdx
	movq	%rax, %rbx
	jne	.L120
	movq	%rax, %rdi
	call	__cxa_begin_catch
	movq	(%rax), %rdx
	movq	%rax, %rdi
	call	*16(%rdx)
	movq	stderr(%rip), %rdi
	movq	%rax, %rcx
	movl	$.LC32, %edx
	movl	$1, %esi
	xorl	%eax, %eax
.LEHB32:
	call	__fprintf_chk
.LEHE32:
	call	__cxa_end_catch
	movl	$1, %ebx
	jmp	.L121
.L140:
	movq	%rax, %rbx
.L122:
	call	__cxa_end_catch
	jmp	.L120
.L137:
	movq	%rax, %rbx
.L120:
	movq	56(%rsp), %rdi
	testq	%rdi, %rdi
	je	.L99
	call	_ZdlPv
	jmp	.L99
.L133:
	movq	%rax, %rbx
.L99:
	movq	%r13, %rdi
	call	_ZN2cv3MatD1Ev
	jmp	.L124
.L131:
	movq	%rax, %rbx
.L124:
	movq	%r14, %rdi
	call	_ZN2cv3MatD1Ev
	jmp	.L109
.L129:
	movq	%rax, %rbx
.L109:
	movq	%rbp, %rdi
	call	_ZN2cv3MatD1Ev
	movq	%rbx, %rdi
.LEHB33:
	call	_Unwind_Resume
.LEHE33:
.L125:
	addq	$920, %rsp
	.cfi_def_cfa_offset 56
	popq	%rbx
	.cfi_def_cfa_offset 48
	popq	%rbp
	.cfi_def_cfa_offset 40
	popq	%r12
	.cfi_def_cfa_offset 32
	popq	%r13
	.cfi_def_cfa_offset 24
	popq	%r14
	.cfi_def_cfa_offset 16
	popq	%r15
	.cfi_def_cfa_offset 8
	ret
	.cfi_endproc
.LFE14402:
	.section	.gcc_except_table
	.align 4
.LLSDA14402:
	.byte	0xff
	.byte	0x3
	.uleb128 .LLSDATT14402-.LLSDATTD14402
.LLSDATTD14402:
	.byte	0x1
	.uleb128 .LLSDACSE14402-.LLSDACSB14402
.LLSDACSB14402:
	.uleb128 .LEHB10-.LFB14402
	.uleb128 .LEHE10-.LEHB10
	.uleb128 .L126-.LFB14402
	.uleb128 0x3
	.uleb128 .LEHB11-.LFB14402
	.uleb128 .LEHE11-.LEHB11
	.uleb128 .L127-.LFB14402
	.uleb128 0x3
	.uleb128 .LEHB12-.LFB14402
	.uleb128 .LEHE12-.LEHB12
	.uleb128 .L128-.LFB14402
	.uleb128 0x3
	.uleb128 .LEHB13-.LFB14402
	.uleb128 .LEHE13-.LEHB13
	.uleb128 .L129-.LFB14402
	.uleb128 0
	.uleb128 .LEHB14-.LFB14402
	.uleb128 .LEHE14-.LEHB14
	.uleb128 .L131-.LFB14402
	.uleb128 0
	.uleb128 .LEHB15-.LFB14402
	.uleb128 .LEHE15-.LEHB15
	.uleb128 .L133-.LFB14402
	.uleb128 0
	.uleb128 .LEHB16-.LFB14402
	.uleb128 .LEHE16-.LEHB16
	.uleb128 .L132-.LFB14402
	.uleb128 0
	.uleb128 .LEHB17-.LFB14402
	.uleb128 .LEHE17-.LEHB17
	.uleb128 .L133-.LFB14402
	.uleb128 0
	.uleb128 .LEHB18-.LFB14402
	.uleb128 .LEHE18-.LEHB18
	.uleb128 .L141-.LFB14402
	.uleb128 0
	.uleb128 .LEHB19-.LFB14402
	.uleb128 .LEHE19-.LEHB19
	.uleb128 .L142-.LFB14402
	.uleb128 0
	.uleb128 .LEHB20-.LFB14402
	.uleb128 .LEHE20-.LEHB20
	.uleb128 .L141-.LFB14402
	.uleb128 0
	.uleb128 .LEHB21-.LFB14402
	.uleb128 .LEHE21-.LEHB21
	.uleb128 .L133-.LFB14402
	.uleb128 0
	.uleb128 .LEHB22-.LFB14402
	.uleb128 .LEHE22-.LEHB22
	.uleb128 .L134-.LFB14402
	.uleb128 0
	.uleb128 .LEHB23-.LFB14402
	.uleb128 .LEHE23-.LEHB23
	.uleb128 .L133-.LFB14402
	.uleb128 0
	.uleb128 .LEHB24-.LFB14402
	.uleb128 .LEHE24-.LEHB24
	.uleb128 .L135-.LFB14402
	.uleb128 0
	.uleb128 .LEHB25-.LFB14402
	.uleb128 .LEHE25-.LEHB25
	.uleb128 .L133-.LFB14402
	.uleb128 0
	.uleb128 .LEHB26-.LFB14402
	.uleb128 .LEHE26-.LEHB26
	.uleb128 .L136-.LFB14402
	.uleb128 0
	.uleb128 .LEHB27-.LFB14402
	.uleb128 .LEHE27-.LEHB27
	.uleb128 .L133-.LFB14402
	.uleb128 0
	.uleb128 .LEHB28-.LFB14402
	.uleb128 .LEHE28-.LEHB28
	.uleb128 .L137-.LFB14402
	.uleb128 0
	.uleb128 .LEHB29-.LFB14402
	.uleb128 .LEHE29-.LEHB29
	.uleb128 .L138-.LFB14402
	.uleb128 0x3
	.uleb128 .LEHB30-.LFB14402
	.uleb128 .LEHE30-.LEHB30
	.uleb128 .L139-.LFB14402
	.uleb128 0x3
	.uleb128 .LEHB31-.LFB14402
	.uleb128 .LEHE31-.LEHB31
	.uleb128 .L130-.LFB14402
	.uleb128 0
	.uleb128 .LEHB32-.LFB14402
	.uleb128 .LEHE32-.LEHB32
	.uleb128 .L140-.LFB14402
	.uleb128 0
	.uleb128 .LEHB33-.LFB14402
	.uleb128 .LEHE33-.LEHB33
	.uleb128 0
	.uleb128 0
.LLSDACSE14402:
	.byte	0
	.byte	0
	.byte	0x1
	.byte	0x7d
	.align 4
	.long	_ZTISt13runtime_error
.LLSDATT14402:
	.section	.text.startup
	.size	main, .-main
	.section	.text.unlikely
.LCOLDE33:
	.section	.text.startup
.LHOTE33:
	.section	.text.unlikely._ZN3tbb10interface98internal24balancing_partition_typeINS1_13adaptive_modeINS1_19auto_partition_typeEEEE18check_being_stolenERNS_4taskE,"axG",@progbits,_ZN3tbb10interface98internal24balancing_partition_typeINS1_13adaptive_modeINS1_19auto_partition_typeEEEE18check_being_stolenERNS_4taskE,comdat
	.align 2
.LCOLDB34:
	.section	.text._ZN3tbb10interface98internal24balancing_partition_typeINS1_13adaptive_modeINS1_19auto_partition_typeEEEE18check_being_stolenERNS_4taskE,"axG",@progbits,_ZN3tbb10interface98internal24balancing_partition_typeINS1_13adaptive_modeINS1_19auto_partition_typeEEEE18check_being_stolenERNS_4taskE,comdat
.LHOTB34:
	.align 2
	.weak	_ZN3tbb10interface98internal24balancing_partition_typeINS1_13adaptive_modeINS1_19auto_partition_typeEEEE18check_being_stolenERNS_4taskE
	.type	_ZN3tbb10interface98internal24balancing_partition_typeINS1_13adaptive_modeINS1_19auto_partition_typeEEEE18check_being_stolenERNS_4taskE, @function
_ZN3tbb10interface98internal24balancing_partition_typeINS1_13adaptive_modeINS1_19auto_partition_typeEEEE18check_being_stolenERNS_4taskE:
.LFB16056:
	.cfi_startproc
	cmpq	$0, (%rdi)
	je	.L156
.L158:
	xorl	%eax, %eax
	ret
.L156:
	movq	$1, (%rdi)
	cmpb	$0, -11(%rsi)
	jns	.L158
	movq	-32(%rsi), %rax
	cmpl	$1, -24(%rax)
	jle	.L158
	movb	$1, 8(%rax)
	cmpb	$0, 12(%rdi)
	jne	.L161
	movb	$1, 12(%rdi)
.L161:
	addb	$2, 12(%rdi)
	movb	$1, %al
	ret
	.cfi_endproc
.LFE16056:
	.size	_ZN3tbb10interface98internal24balancing_partition_typeINS1_13adaptive_modeINS1_19auto_partition_typeEEEE18check_being_stolenERNS_4taskE, .-_ZN3tbb10interface98internal24balancing_partition_typeINS1_13adaptive_modeINS1_19auto_partition_typeEEEE18check_being_stolenERNS_4taskE
	.section	.text.unlikely._ZN3tbb10interface98internal24balancing_partition_typeINS1_13adaptive_modeINS1_19auto_partition_typeEEEE18check_being_stolenERNS_4taskE,"axG",@progbits,_ZN3tbb10interface98internal24balancing_partition_typeINS1_13adaptive_modeINS1_19auto_partition_typeEEEE18check_being_stolenERNS_4taskE,comdat
.LCOLDE34:
	.section	.text._ZN3tbb10interface98internal24balancing_partition_typeINS1_13adaptive_modeINS1_19auto_partition_typeEEEE18check_being_stolenERNS_4taskE,"axG",@progbits,_ZN3tbb10interface98internal24balancing_partition_typeINS1_13adaptive_modeINS1_19auto_partition_typeEEEE18check_being_stolenERNS_4taskE,comdat
.LHOTE34:
	.section	.text.unlikely._ZNK3tbb13blocked_rangeIiE12is_divisibleEv,"axG",@progbits,_ZNK3tbb13blocked_rangeIiE12is_divisibleEv,comdat
	.align 2
.LCOLDB35:
	.section	.text._ZNK3tbb13blocked_rangeIiE12is_divisibleEv,"axG",@progbits,_ZNK3tbb13blocked_rangeIiE12is_divisibleEv,comdat
.LHOTB35:
	.align 2
	.weak	_ZNK3tbb13blocked_rangeIiE12is_divisibleEv
	.type	_ZNK3tbb13blocked_rangeIiE12is_divisibleEv, @function
_ZNK3tbb13blocked_rangeIiE12is_divisibleEv:
.LFB16061:
	.cfi_startproc
	movl	(%rdi), %eax
	subl	4(%rdi), %eax
	cltq
	cmpq	%rax, 8(%rdi)
	setb	%al
	ret
	.cfi_endproc
.LFE16061:
	.size	_ZNK3tbb13blocked_rangeIiE12is_divisibleEv, .-_ZNK3tbb13blocked_rangeIiE12is_divisibleEv
	.section	.text.unlikely._ZNK3tbb13blocked_rangeIiE12is_divisibleEv,"axG",@progbits,_ZNK3tbb13blocked_rangeIiE12is_divisibleEv,comdat
.LCOLDE35:
	.section	.text._ZNK3tbb13blocked_rangeIiE12is_divisibleEv,"axG",@progbits,_ZNK3tbb13blocked_rangeIiE12is_divisibleEv,comdat
.LHOTE35:
	.section	.text.unlikely._ZN3tbb10interface98internal12range_vectorINS_13blocked_rangeIiEELh8EE12is_divisibleEh,"axG",@progbits,_ZN3tbb10interface98internal12range_vectorINS_13blocked_rangeIiEELh8EE12is_divisibleEh,comdat
	.align 2
.LCOLDB36:
	.section	.text._ZN3tbb10interface98internal12range_vectorINS_13blocked_rangeIiEELh8EE12is_divisibleEh,"axG",@progbits,_ZN3tbb10interface98internal12range_vectorINS_13blocked_rangeIiEELh8EE12is_divisibleEh,comdat
.LHOTB36:
	.align 2
	.weak	_ZN3tbb10interface98internal12range_vectorINS_13blocked_rangeIiEELh8EE12is_divisibleEh
	.type	_ZN3tbb10interface98internal12range_vectorINS_13blocked_rangeIiEELh8EE12is_divisibleEh, @function
_ZN3tbb10interface98internal12range_vectorINS_13blocked_rangeIiEELh8EE12is_divisibleEh:
.LFB16085:
	.cfi_startproc
	movzbl	(%rdi), %edx
	cmpb	%sil, 3(%rdi,%rdx)
	jnb	.L165
	movq	%rdx, %rax
	salq	$4, %rax
	leaq	16(%rdi,%rax), %rdi
	jmp	_ZNK3tbb13blocked_rangeIiE12is_divisibleEv
.L165:
	xorl	%eax, %eax
	ret
	.cfi_endproc
.LFE16085:
	.size	_ZN3tbb10interface98internal12range_vectorINS_13blocked_rangeIiEELh8EE12is_divisibleEh, .-_ZN3tbb10interface98internal12range_vectorINS_13blocked_rangeIiEELh8EE12is_divisibleEh
	.section	.text.unlikely._ZN3tbb10interface98internal12range_vectorINS_13blocked_rangeIiEELh8EE12is_divisibleEh,"axG",@progbits,_ZN3tbb10interface98internal12range_vectorINS_13blocked_rangeIiEELh8EE12is_divisibleEh,comdat
.LCOLDE36:
	.section	.text._ZN3tbb10interface98internal12range_vectorINS_13blocked_rangeIiEELh8EE12is_divisibleEh,"axG",@progbits,_ZN3tbb10interface98internal12range_vectorINS_13blocked_rangeIiEELh8EE12is_divisibleEh,comdat
.LHOTE36:
	.section	.text.unlikely._ZN3tbb10interface98internal12range_vectorINS_13blocked_rangeIiEELh8EE13split_to_fillEh,"axG",@progbits,_ZN3tbb10interface98internal12range_vectorINS_13blocked_rangeIiEELh8EE13split_to_fillEh,comdat
	.align 2
.LCOLDB37:
	.section	.text._ZN3tbb10interface98internal12range_vectorINS_13blocked_rangeIiEELh8EE13split_to_fillEh,"axG",@progbits,_ZN3tbb10interface98internal12range_vectorINS_13blocked_rangeIiEELh8EE13split_to_fillEh,comdat
.LHOTB37:
	.align 2
	.weak	_ZN3tbb10interface98internal12range_vectorINS_13blocked_rangeIiEELh8EE13split_to_fillEh
	.type	_ZN3tbb10interface98internal12range_vectorINS_13blocked_rangeIiEELh8EE13split_to_fillEh, @function
_ZN3tbb10interface98internal12range_vectorINS_13blocked_rangeIiEELh8EE13split_to_fillEh:
.LFB16079:
	.cfi_startproc
	pushq	%r12
	.cfi_def_cfa_offset 16
	.cfi_offset 12, -16
	leaq	16(%rdi), %r12
	pushq	%rbp
	.cfi_def_cfa_offset 24
	.cfi_offset 6, -24
	movzbl	%sil, %ebp
	pushq	%rbx
	.cfi_def_cfa_offset 32
	.cfi_offset 3, -32
	movq	%rdi, %rbx
.L171:
	cmpb	$7, 2(%rbx)
	ja	.L166
	movl	%ebp, %esi
	movq	%rbx, %rdi
	call	_ZN3tbb10interface98internal12range_vectorINS_13blocked_rangeIiEELh8EE12is_divisibleEh
	testb	%al, %al
	je	.L166
	movzbl	(%rbx), %eax
	movzbl	%al, %ecx
	salq	$4, %rax
	leal	1(%rcx), %edx
	addq	%r12, %rax
	andl	$7, %edx
	movb	%dl, (%rbx)
	movslq	%edx, %rdx
	salq	$4, %rdx
	addq	%r12, %rdx
	je	.L179
	movups	(%rax), %xmm0
	movups	%xmm0, (%rdx)
	jmp	.L169
.L179:
	testq	%rax, %rax
	je	.L170
.L169:
	movzbl	(%rbx), %edx
	salq	$4, %rdx
	addq	%r12, %rdx
	movl	(%rdx), %esi
	movl	4(%rdx), %edi
	movl	%esi, (%rax)
	movl	(%rdx), %esi
	subl	%edi, %esi
	shrl	%esi
	addl	%edi, %esi
	movl	%esi, (%rdx)
	movq	8(%rdx), %rdx
	movl	%esi, 4(%rax)
	movq	%rdx, 8(%rax)
.L170:
	movb	3(%rbx,%rcx), %al
	movzbl	(%rbx), %edx
	incl	%eax
	movb	%al, 3(%rbx,%rcx)
	movb	%al, 3(%rbx,%rdx)
	incb	2(%rbx)
	jmp	.L171
.L166:
	popq	%rbx
	.cfi_def_cfa_offset 24
	popq	%rbp
	.cfi_def_cfa_offset 16
	popq	%r12
	.cfi_def_cfa_offset 8
	ret
	.cfi_endproc
.LFE16079:
	.size	_ZN3tbb10interface98internal12range_vectorINS_13blocked_rangeIiEELh8EE13split_to_fillEh, .-_ZN3tbb10interface98internal12range_vectorINS_13blocked_rangeIiEELh8EE13split_to_fillEh
	.section	.text.unlikely._ZN3tbb10interface98internal12range_vectorINS_13blocked_rangeIiEELh8EE13split_to_fillEh,"axG",@progbits,_ZN3tbb10interface98internal12range_vectorINS_13blocked_rangeIiEELh8EE13split_to_fillEh,comdat
.LCOLDE37:
	.section	.text._ZN3tbb10interface98internal12range_vectorINS_13blocked_rangeIiEELh8EE13split_to_fillEh,"axG",@progbits,_ZN3tbb10interface98internal12range_vectorINS_13blocked_rangeIiEELh8EE13split_to_fillEh,comdat
.LHOTE37:
	.section	.text.unlikely._ZN3tbb10interface98internal12range_vectorINS_13blocked_rangeIiEELh8EE8pop_backEv,"axG",@progbits,_ZN3tbb10interface98internal12range_vectorINS_13blocked_rangeIiEELh8EE8pop_backEv,comdat
	.align 2
.LCOLDB38:
	.section	.text._ZN3tbb10interface98internal12range_vectorINS_13blocked_rangeIiEELh8EE8pop_backEv,"axG",@progbits,_ZN3tbb10interface98internal12range_vectorINS_13blocked_rangeIiEELh8EE8pop_backEv,comdat
.LHOTB38:
	.align 2
	.weak	_ZN3tbb10interface98internal12range_vectorINS_13blocked_rangeIiEELh8EE8pop_backEv
	.type	_ZN3tbb10interface98internal12range_vectorINS_13blocked_rangeIiEELh8EE8pop_backEv, @function
_ZN3tbb10interface98internal12range_vectorINS_13blocked_rangeIiEELh8EE8pop_backEv:
.LFB16087:
	.cfi_startproc
	movzbl	(%rdi), %eax
	decb	2(%rdi)
	addl	$7, %eax
	andl	$7, %eax
	movb	%al, (%rdi)
	ret
	.cfi_endproc
.LFE16087:
	.size	_ZN3tbb10interface98internal12range_vectorINS_13blocked_rangeIiEELh8EE8pop_backEv, .-_ZN3tbb10interface98internal12range_vectorINS_13blocked_rangeIiEELh8EE8pop_backEv
	.section	.text.unlikely._ZN3tbb10interface98internal12range_vectorINS_13blocked_rangeIiEELh8EE8pop_backEv,"axG",@progbits,_ZN3tbb10interface98internal12range_vectorINS_13blocked_rangeIiEELh8EE8pop_backEv,comdat
.LCOLDE38:
	.section	.text._ZN3tbb10interface98internal12range_vectorINS_13blocked_rangeIiEELh8EE8pop_backEv,"axG",@progbits,_ZN3tbb10interface98internal12range_vectorINS_13blocked_rangeIiEELh8EE8pop_backEv,comdat
.LHOTE38:
	.section	.text.unlikely._ZN3tbb10interface98internal12range_vectorINS_13blocked_rangeIiEELh8EED2Ev,"axG",@progbits,_ZN3tbb10interface98internal12range_vectorINS_13blocked_rangeIiEELh8EED5Ev,comdat
	.align 2
.LCOLDB39:
	.section	.text._ZN3tbb10interface98internal12range_vectorINS_13blocked_rangeIiEELh8EED2Ev,"axG",@progbits,_ZN3tbb10interface98internal12range_vectorINS_13blocked_rangeIiEELh8EED5Ev,comdat
.LHOTB39:
	.align 2
	.weak	_ZN3tbb10interface98internal12range_vectorINS_13blocked_rangeIiEELh8EED2Ev
	.type	_ZN3tbb10interface98internal12range_vectorINS_13blocked_rangeIiEELh8EED2Ev, @function
_ZN3tbb10interface98internal12range_vectorINS_13blocked_rangeIiEELh8EED2Ev:
.LFB16077:
	.cfi_startproc
	pushq	%rbx
	.cfi_def_cfa_offset 16
	.cfi_offset 3, -16
	movq	%rdi, %rbx
.L183:
	cmpb	$0, 2(%rbx)
	je	.L181
	movq	%rbx, %rdi
	call	_ZN3tbb10interface98internal12range_vectorINS_13blocked_rangeIiEELh8EE8pop_backEv
	jmp	.L183
.L181:
	popq	%rbx
	.cfi_def_cfa_offset 8
	ret
	.cfi_endproc
.LFE16077:
	.size	_ZN3tbb10interface98internal12range_vectorINS_13blocked_rangeIiEELh8EED2Ev, .-_ZN3tbb10interface98internal12range_vectorINS_13blocked_rangeIiEELh8EED2Ev
	.section	.text.unlikely._ZN3tbb10interface98internal12range_vectorINS_13blocked_rangeIiEELh8EED2Ev,"axG",@progbits,_ZN3tbb10interface98internal12range_vectorINS_13blocked_rangeIiEELh8EED5Ev,comdat
.LCOLDE39:
	.section	.text._ZN3tbb10interface98internal12range_vectorINS_13blocked_rangeIiEELh8EED2Ev,"axG",@progbits,_ZN3tbb10interface98internal12range_vectorINS_13blocked_rangeIiEELh8EED5Ev,comdat
.LHOTE39:
	.weak	_ZN3tbb10interface98internal12range_vectorINS_13blocked_rangeIiEELh8EED1Ev
	.set	_ZN3tbb10interface98internal12range_vectorINS_13blocked_rangeIiEELh8EED1Ev,_ZN3tbb10interface98internal12range_vectorINS_13blocked_rangeIiEELh8EED2Ev
	.section	.text.unlikely
	.align 2
.LCOLDB40:
	.text
.LHOTB40:
	.align 2
	.type	_ZN3tbb10interface98internal9start_forINS_13blocked_rangeIiEENS_8internal17parallel_for_bodyIZZ4mainENKUliE_clEiEUliE_iEEKNS_16auto_partitionerEE7executeEv, @function
_ZN3tbb10interface98internal9start_forINS_13blocked_rangeIiEENS_8internal17parallel_for_bodyIZZ4mainENKUliE_clEiEUliE_iEEKNS_16auto_partitionerEE7executeEv:
.LFB16054:
	.cfi_startproc
	.cfi_personality 0x3,__gxx_personality_v0
	.cfi_lsda 0x3,.LLSDA16054
	pushq	%r12
	.cfi_def_cfa_offset 16
	.cfi_offset 12, -16
	leaq	40(%rdi), %r12
	pushq	%rbp
	.cfi_def_cfa_offset 24
	.cfi_offset 6, -24
	pushq	%rbx
	.cfi_def_cfa_offset 32
	.cfi_offset 3, -32
	movq	%rdi, %rbx
	movq	%rdi, %rsi
	leaq	8(%rbx), %rbp
	movq	%r12, %rdi
	subq	$160, %rsp
	.cfi_def_cfa_offset 192
	movq	%fs:40, %rax
	movq	%rax, 152(%rsp)
	xorl	%eax, %eax
	call	_ZN3tbb10interface98internal24balancing_partition_typeINS1_13adaptive_modeINS1_19auto_partition_typeEEEE18check_being_stolenERNS_4taskE
	movq	%rbp, %rdi
	call	_ZNK3tbb13blocked_rangeIiE12is_divisibleEv
	testb	%al, %al
	jne	.L186
.L189:
	movq	%rbp, %rdi
	call	_ZNK3tbb13blocked_rangeIiE12is_divisibleEv
	testb	%al, %al
	jne	.L187
	jmp	.L188
.L223:
	movl	$56, %esi
	movq	%rbx, %rdi
.LEHB34:
	call	_ZN3tbb10interface98internal16allocate_siblingEPNS_4taskEm
	testq	%rax, %rax
	je	.L190
	movb	$1, -11(%rax)
	movl	8(%rbx), %edx
	movl	12(%rbx), %ecx
	movq	$_ZTVN3tbb10interface98internal9start_forINS_13blocked_rangeIiEENS_8internal17parallel_for_bodyIZZ4mainENKUliE_clEiEUliE_iEEKNS_16auto_partitionerEEE+16, (%rax)
	movups	24(%rbx), %xmm0
	movl	%edx, 8(%rax)
	movl	8(%rbx), %edx
	subl	%ecx, %edx
	shrl	%edx
	addl	%ecx, %edx
	movl	%edx, 8(%rbx)
	movl	%edx, 12(%rax)
	movq	16(%rbx), %rdx
	movups	%xmm0, 24(%rax)
	movq	%rdx, 16(%rax)
	movq	40(%rbx), %rdx
	shrq	%rdx
	movq	%rdx, 40(%rbx)
	movq	%rdx, 40(%rax)
	movl	$2, 48(%rax)
	movb	52(%rbx), %dl
	movb	%dl, 52(%rax)
.L190:
	movq	%rax, %rdi
	call	_ZN3tbb10interface58internal9task_base5spawnERNS_4taskE
	movq	%rbp, %rdi
	call	_ZNK3tbb13blocked_rangeIiE12is_divisibleEv
	testb	%al, %al
	je	.L188
.L186:
	movq	%r12, %rdi
	call	_ZN3tbb10interface98internal19auto_partition_type12is_divisibleEv
	testb	%al, %al
	jne	.L223
	jmp	.L189
.L187:
	cmpb	$0, 52(%rbx)
	jne	.L224
.L188:
	leaq	24(%rbx), %rdi
	movq	%rbp, %rsi
	call	_ZNK3tbb8internal17parallel_for_bodyIZZ4mainENKUliE_clEiEUliE_iEclERKNS_13blocked_rangeIiEE.constprop.58
.LEHE34:
.L202:
	xorl	%eax, %eax
	movq	152(%rsp), %rcx
	xorq	%fs:40, %rcx
	je	.L203
	call	__stack_chk_fail
.L224:
	movups	8(%rbx), %xmm3
	movb	$0, 8(%rsp)
	movb	$0, 9(%rsp)
	movups	%xmm3, 24(%rsp)
	movb	$1, 10(%rsp)
	movb	$0, 11(%rsp)
.L200:
	leaq	8(%rsp), %rdi
	movzbl	52(%rbx), %esi
	call	_ZN3tbb10interface98internal12range_vectorINS_13blocked_rangeIiEELh8EE13split_to_fillEh
	movq	-32(%rbx), %rax
	movb	8(%rax), %dl
	movb	8(%rax), %dl
	movb	8(%rax), %al
	testb	%al, %al
	jne	.L193
.L198:
	movzbl	8(%rsp), %eax
	leaq	24(%rbx), %rdi
	salq	$4, %rax
	leaq	24(%rsp,%rax), %rsi
.LEHB35:
	call	_ZNK3tbb8internal17parallel_for_bodyIZZ4mainENKUliE_clEiEUliE_iEclERKNS_13blocked_rangeIiEE.constprop.58
	leaq	8(%rsp), %rdi
	call	_ZN3tbb10interface98internal12range_vectorINS_13blocked_rangeIiEELh8EE8pop_backEv
	jmp	.L197
.L193:
	movb	52(%rbx), %al
	cmpb	$1, 10(%rsp)
	leal	2(%rax), %esi
	movb	%sil, 52(%rbx)
	jbe	.L195
	movzbl	9(%rsp), %edx
	movl	$56, %esi
	movq	%rbx, %rdi
	movq	%rdx, %rax
	movb	11(%rsp,%rdx), %bpl
	salq	$4, %rax
	leaq	24(%rsp,%rax), %r12
	call	_ZN3tbb10interface98internal16allocate_siblingEPNS_4taskEm
	testq	%rax, %rax
	je	.L196
	movb	$1, -11(%rax)
	movq	40(%rbx), %rdx
	movups	(%r12), %xmm1
	movq	$_ZTVN3tbb10interface98internal9start_forINS_13blocked_rangeIiEENS_8internal17parallel_for_bodyIZZ4mainENKUliE_clEiEUliE_iEEKNS_16auto_partitionerEEE+16, (%rax)
	movups	24(%rbx), %xmm2
	shrq	%rdx
	movups	%xmm1, 8(%rax)
	movups	%xmm2, 24(%rax)
	movq	%rdx, 40(%rbx)
	movq	%rdx, 40(%rax)
	movl	$2, 48(%rax)
	movb	52(%rbx), %dl
	subl	%ebp, %edx
	movb	%dl, 52(%rax)
.L196:
	movq	%rax, %rdi
	call	_ZN3tbb10interface58internal9task_base5spawnERNS_4taskE
	movzbl	9(%rsp), %eax
	decb	10(%rsp)
	incl	%eax
	andl	$7, %eax
	movb	%al, 9(%rsp)
	jmp	.L197
.L195:
	leaq	8(%rsp), %rdi
	movzbl	%sil, %esi
	call	_ZN3tbb10interface98internal12range_vectorINS_13blocked_rangeIiEELh8EE12is_divisibleEh
	testb	%al, %al
	je	.L198
.L197:
	cmpb	$0, 10(%rsp)
	je	.L199
	movq	-56(%rbx), %rdi
	call	_ZNK3tbb18task_group_context28is_group_execution_cancelledEv
.LEHE35:
	testb	%al, %al
	jne	.L199
	jmp	.L200
.L204:
	movq	%rax, %rbx
.L201:
	leaq	8(%rsp), %rdi
	call	_ZN3tbb10interface98internal12range_vectorINS_13blocked_rangeIiEELh8EED1Ev
	movq	%rbx, %rdi
.LEHB36:
	call	_Unwind_Resume
.LEHE36:
.L199:
	leaq	8(%rsp), %rdi
	call	_ZN3tbb10interface98internal12range_vectorINS_13blocked_rangeIiEELh8EED1Ev
	jmp	.L202
.L203:
	addq	$160, %rsp
	.cfi_def_cfa_offset 32
	popq	%rbx
	.cfi_def_cfa_offset 24
	popq	%rbp
	.cfi_def_cfa_offset 16
	popq	%r12
	.cfi_def_cfa_offset 8
	ret
	.cfi_endproc
.LFE16054:
	.section	.gcc_except_table
.LLSDA16054:
	.byte	0xff
	.byte	0xff
	.byte	0x1
	.uleb128 .LLSDACSE16054-.LLSDACSB16054
.LLSDACSB16054:
	.uleb128 .LEHB34-.LFB16054
	.uleb128 .LEHE34-.LEHB34
	.uleb128 0
	.uleb128 0
	.uleb128 .LEHB35-.LFB16054
	.uleb128 .LEHE35-.LEHB35
	.uleb128 .L204-.LFB16054
	.uleb128 0
	.uleb128 .LEHB36-.LFB16054
	.uleb128 .LEHE36-.LEHB36
	.uleb128 0
	.uleb128 0
.LLSDACSE16054:
	.text
	.size	_ZN3tbb10interface98internal9start_forINS_13blocked_rangeIiEENS_8internal17parallel_for_bodyIZZ4mainENKUliE_clEiEUliE_iEEKNS_16auto_partitionerEE7executeEv, .-_ZN3tbb10interface98internal9start_forINS_13blocked_rangeIiEENS_8internal17parallel_for_bodyIZZ4mainENKUliE_clEiEUliE_iEEKNS_16auto_partitionerEE7executeEv
	.section	.text.unlikely
.LCOLDE40:
	.text
.LHOTE40:
	.section	.text.unlikely
	.align 2
.LCOLDB41:
	.text
.LHOTB41:
	.align 2
	.type	_ZN3tbb10interface98internal9start_forINS_13blocked_rangeIiEENS_8internal17parallel_for_bodyIZ4mainEUliE_iEEKNS_16auto_partitionerEE7executeEv, @function
_ZN3tbb10interface98internal9start_forINS_13blocked_rangeIiEENS_8internal17parallel_for_bodyIZ4mainEUliE_iEEKNS_16auto_partitionerEE7executeEv:
.LFB16052:
	.cfi_startproc
	.cfi_personality 0x3,__gxx_personality_v0
	.cfi_lsda 0x3,.LLSDA16052
	pushq	%r12
	.cfi_def_cfa_offset 16
	.cfi_offset 12, -16
	leaq	40(%rdi), %r12
	pushq	%rbp
	.cfi_def_cfa_offset 24
	.cfi_offset 6, -24
	pushq	%rbx
	.cfi_def_cfa_offset 32
	.cfi_offset 3, -32
	movq	%rdi, %rbx
	movq	%rdi, %rsi
	leaq	8(%rbx), %rbp
	movq	%r12, %rdi
	subq	$160, %rsp
	.cfi_def_cfa_offset 192
	movq	%fs:40, %rax
	movq	%rax, 152(%rsp)
	xorl	%eax, %eax
	call	_ZN3tbb10interface98internal24balancing_partition_typeINS1_13adaptive_modeINS1_19auto_partition_typeEEEE18check_being_stolenERNS_4taskE
	movq	%rbp, %rdi
	call	_ZNK3tbb13blocked_rangeIiE12is_divisibleEv
	testb	%al, %al
	jne	.L226
.L229:
	movq	%rbp, %rdi
	call	_ZNK3tbb13blocked_rangeIiE12is_divisibleEv
	testb	%al, %al
	jne	.L227
	jmp	.L228
.L263:
	movl	$56, %esi
	movq	%rbx, %rdi
.LEHB37:
	call	_ZN3tbb10interface98internal16allocate_siblingEPNS_4taskEm
	testq	%rax, %rax
	je	.L230
	movb	$1, -11(%rax)
	movl	8(%rbx), %edx
	movl	12(%rbx), %ecx
	movq	$_ZTVN3tbb10interface98internal9start_forINS_13blocked_rangeIiEENS_8internal17parallel_for_bodyIZ4mainEUliE_iEEKNS_16auto_partitionerEEE+16, (%rax)
	movups	24(%rbx), %xmm0
	movl	%edx, 8(%rax)
	movl	8(%rbx), %edx
	subl	%ecx, %edx
	shrl	%edx
	addl	%ecx, %edx
	movl	%edx, 8(%rbx)
	movl	%edx, 12(%rax)
	movq	16(%rbx), %rdx
	movups	%xmm0, 24(%rax)
	movq	%rdx, 16(%rax)
	movq	40(%rbx), %rdx
	shrq	%rdx
	movq	%rdx, 40(%rbx)
	movq	%rdx, 40(%rax)
	movl	$2, 48(%rax)
	movb	52(%rbx), %dl
	movb	%dl, 52(%rax)
.L230:
	movq	%rax, %rdi
	call	_ZN3tbb10interface58internal9task_base5spawnERNS_4taskE
	movq	%rbp, %rdi
	call	_ZNK3tbb13blocked_rangeIiE12is_divisibleEv
	testb	%al, %al
	je	.L228
.L226:
	movq	%r12, %rdi
	call	_ZN3tbb10interface98internal19auto_partition_type12is_divisibleEv
	testb	%al, %al
	jne	.L263
	jmp	.L229
.L227:
	cmpb	$0, 52(%rbx)
	jne	.L264
.L228:
	leaq	24(%rbx), %rdi
	movq	%rbp, %rsi
	call	_ZNK3tbb8internal17parallel_for_bodyIZ4mainEUliE_iEclERKNS_13blocked_rangeIiEE.constprop.63
.LEHE37:
.L242:
	xorl	%eax, %eax
	movq	152(%rsp), %rcx
	xorq	%fs:40, %rcx
	je	.L243
	call	__stack_chk_fail
.L264:
	movups	8(%rbx), %xmm3
	movb	$0, 8(%rsp)
	movb	$0, 9(%rsp)
	movups	%xmm3, 24(%rsp)
	movb	$1, 10(%rsp)
	movb	$0, 11(%rsp)
.L240:
	leaq	8(%rsp), %rdi
	movzbl	52(%rbx), %esi
	call	_ZN3tbb10interface98internal12range_vectorINS_13blocked_rangeIiEELh8EE13split_to_fillEh
	movq	-32(%rbx), %rax
	movb	8(%rax), %dl
	movb	8(%rax), %dl
	movb	8(%rax), %al
	testb	%al, %al
	jne	.L233
.L238:
	movzbl	8(%rsp), %eax
	leaq	24(%rbx), %rdi
	salq	$4, %rax
	leaq	24(%rsp,%rax), %rsi
.LEHB38:
	call	_ZNK3tbb8internal17parallel_for_bodyIZ4mainEUliE_iEclERKNS_13blocked_rangeIiEE.constprop.63
	leaq	8(%rsp), %rdi
	call	_ZN3tbb10interface98internal12range_vectorINS_13blocked_rangeIiEELh8EE8pop_backEv
	jmp	.L237
.L233:
	movb	52(%rbx), %al
	cmpb	$1, 10(%rsp)
	leal	2(%rax), %esi
	movb	%sil, 52(%rbx)
	jbe	.L235
	movzbl	9(%rsp), %edx
	movl	$56, %esi
	movq	%rbx, %rdi
	movq	%rdx, %rax
	movb	11(%rsp,%rdx), %bpl
	salq	$4, %rax
	leaq	24(%rsp,%rax), %r12
	call	_ZN3tbb10interface98internal16allocate_siblingEPNS_4taskEm
	testq	%rax, %rax
	je	.L236
	movb	$1, -11(%rax)
	movq	40(%rbx), %rdx
	movups	(%r12), %xmm1
	movq	$_ZTVN3tbb10interface98internal9start_forINS_13blocked_rangeIiEENS_8internal17parallel_for_bodyIZ4mainEUliE_iEEKNS_16auto_partitionerEEE+16, (%rax)
	movups	24(%rbx), %xmm2
	shrq	%rdx
	movups	%xmm1, 8(%rax)
	movups	%xmm2, 24(%rax)
	movq	%rdx, 40(%rbx)
	movq	%rdx, 40(%rax)
	movl	$2, 48(%rax)
	movb	52(%rbx), %dl
	subl	%ebp, %edx
	movb	%dl, 52(%rax)
.L236:
	movq	%rax, %rdi
	call	_ZN3tbb10interface58internal9task_base5spawnERNS_4taskE
	movzbl	9(%rsp), %eax
	decb	10(%rsp)
	incl	%eax
	andl	$7, %eax
	movb	%al, 9(%rsp)
	jmp	.L237
.L235:
	leaq	8(%rsp), %rdi
	movzbl	%sil, %esi
	call	_ZN3tbb10interface98internal12range_vectorINS_13blocked_rangeIiEELh8EE12is_divisibleEh
	testb	%al, %al
	je	.L238
.L237:
	cmpb	$0, 10(%rsp)
	je	.L239
	movq	-56(%rbx), %rdi
	call	_ZNK3tbb18task_group_context28is_group_execution_cancelledEv
.LEHE38:
	testb	%al, %al
	jne	.L239
	jmp	.L240
.L244:
	movq	%rax, %rbx
.L241:
	leaq	8(%rsp), %rdi
	call	_ZN3tbb10interface98internal12range_vectorINS_13blocked_rangeIiEELh8EED1Ev
	movq	%rbx, %rdi
.LEHB39:
	call	_Unwind_Resume
.LEHE39:
.L239:
	leaq	8(%rsp), %rdi
	call	_ZN3tbb10interface98internal12range_vectorINS_13blocked_rangeIiEELh8EED1Ev
	jmp	.L242
.L243:
	addq	$160, %rsp
	.cfi_def_cfa_offset 32
	popq	%rbx
	.cfi_def_cfa_offset 24
	popq	%rbp
	.cfi_def_cfa_offset 16
	popq	%r12
	.cfi_def_cfa_offset 8
	ret
	.cfi_endproc
.LFE16052:
	.section	.gcc_except_table
.LLSDA16052:
	.byte	0xff
	.byte	0xff
	.byte	0x1
	.uleb128 .LLSDACSE16052-.LLSDACSB16052
.LLSDACSB16052:
	.uleb128 .LEHB37-.LFB16052
	.uleb128 .LEHE37-.LEHB37
	.uleb128 0
	.uleb128 0
	.uleb128 .LEHB38-.LFB16052
	.uleb128 .LEHE38-.LEHB38
	.uleb128 .L244-.LFB16052
	.uleb128 0
	.uleb128 .LEHB39-.LFB16052
	.uleb128 .LEHE39-.LEHB39
	.uleb128 0
	.uleb128 0
.LLSDACSE16052:
	.text
	.size	_ZN3tbb10interface98internal9start_forINS_13blocked_rangeIiEENS_8internal17parallel_for_bodyIZ4mainEUliE_iEEKNS_16auto_partitionerEE7executeEv, .-_ZN3tbb10interface98internal9start_forINS_13blocked_rangeIiEENS_8internal17parallel_for_bodyIZ4mainEUliE_iEEKNS_16auto_partitionerEE7executeEv
	.section	.text.unlikely
.LCOLDE41:
	.text
.LHOTE41:
	.section	.text.unlikely
.LCOLDB42:
	.section	.text.startup
.LHOTB42:
	.type	_GLOBAL__sub_I_main, @function
_GLOBAL__sub_I_main:
.LFB16113:
	.cfi_startproc
	pushq	%rax
	.cfi_def_cfa_offset 16
	movl	$_ZStL8__ioinit, %edi
	call	_ZNSt8ios_base4InitC1Ev
	popq	%rcx
	.cfi_def_cfa_offset 8
	movl	$__dso_handle, %edx
	movl	$_ZStL8__ioinit, %esi
	movl	$_ZNSt8ios_base4InitD1Ev, %edi
	jmp	__cxa_atexit
	.cfi_endproc
.LFE16113:
	.size	_GLOBAL__sub_I_main, .-_GLOBAL__sub_I_main
	.section	.text.unlikely
.LCOLDE42:
	.section	.text.startup
.LHOTE42:
	.section	.init_array,"aw"
	.align 8
	.quad	_GLOBAL__sub_I_main
	.weak	_ZTSN3tbb10interface98internal9flag_taskE
	.section	.rodata._ZTSN3tbb10interface98internal9flag_taskE,"aG",@progbits,_ZTSN3tbb10interface98internal9flag_taskE,comdat
	.align 32
	.type	_ZTSN3tbb10interface98internal9flag_taskE, @object
	.size	_ZTSN3tbb10interface98internal9flag_taskE, 38
_ZTSN3tbb10interface98internal9flag_taskE:
	.string	"N3tbb10interface98internal9flag_taskE"
	.weak	_ZTIN3tbb10interface98internal9flag_taskE
	.section	.rodata._ZTIN3tbb10interface98internal9flag_taskE,"aG",@progbits,_ZTIN3tbb10interface98internal9flag_taskE,comdat
	.align 8
	.type	_ZTIN3tbb10interface98internal9flag_taskE, @object
	.size	_ZTIN3tbb10interface98internal9flag_taskE, 24
_ZTIN3tbb10interface98internal9flag_taskE:
	.quad	_ZTVN10__cxxabiv120__si_class_type_infoE+16
	.quad	_ZTSN3tbb10interface98internal9flag_taskE
	.quad	_ZTIN3tbb4taskE
	.section	.rodata
	.align 8
	.type	_ZTIN3tbb10interface98internal9start_forINS_13blocked_rangeIiEENS_8internal17parallel_for_bodyIZZ4mainENKUliE_clEiEUliE_iEEKNS_16auto_partitionerEEE, @object
	.size	_ZTIN3tbb10interface98internal9start_forINS_13blocked_rangeIiEENS_8internal17parallel_for_bodyIZZ4mainENKUliE_clEiEUliE_iEEKNS_16auto_partitionerEEE, 24
_ZTIN3tbb10interface98internal9start_forINS_13blocked_rangeIiEENS_8internal17parallel_for_bodyIZZ4mainENKUliE_clEiEUliE_iEEKNS_16auto_partitionerEEE:
	.quad	_ZTVN10__cxxabiv120__si_class_type_infoE+16
	.quad	_ZTSN3tbb10interface98internal9start_forINS_13blocked_rangeIiEENS_8internal17parallel_for_bodyIZZ4mainENKUliE_clEiEUliE_iEEKNS_16auto_partitionerEEE
	.quad	_ZTIN3tbb4taskE
	.align 32
	.type	_ZTSN3tbb10interface98internal9start_forINS_13blocked_rangeIiEENS_8internal17parallel_for_bodyIZZ4mainENKUliE_clEiEUliE_iEEKNS_16auto_partitionerEEE, @object
	.size	_ZTSN3tbb10interface98internal9start_forINS_13blocked_rangeIiEENS_8internal17parallel_for_bodyIZZ4mainENKUliE_clEiEUliE_iEEKNS_16auto_partitionerEEE, 146
_ZTSN3tbb10interface98internal9start_forINS_13blocked_rangeIiEENS_8internal17parallel_for_bodyIZZ4mainENKUliE_clEiEUliE_iEEKNS_16auto_partitionerEEE:
	.string	"*N3tbb10interface98internal9start_forINS_13blocked_rangeIiEENS_8internal17parallel_for_bodyIZZ4mainENKUliE_clEiEUliE_iEEKNS_16auto_partitionerEEE"
	.align 8
	.type	_ZTIN3tbb10interface98internal9start_forINS_13blocked_rangeIiEENS_8internal17parallel_for_bodyIZ4mainEUliE_iEEKNS_16auto_partitionerEEE, @object
	.size	_ZTIN3tbb10interface98internal9start_forINS_13blocked_rangeIiEENS_8internal17parallel_for_bodyIZ4mainEUliE_iEEKNS_16auto_partitionerEEE, 24
_ZTIN3tbb10interface98internal9start_forINS_13blocked_rangeIiEENS_8internal17parallel_for_bodyIZ4mainEUliE_iEEKNS_16auto_partitionerEEE:
	.quad	_ZTVN10__cxxabiv120__si_class_type_infoE+16
	.quad	_ZTSN3tbb10interface98internal9start_forINS_13blocked_rangeIiEENS_8internal17parallel_for_bodyIZ4mainEUliE_iEEKNS_16auto_partitionerEEE
	.quad	_ZTIN3tbb4taskE
	.align 32
	.type	_ZTSN3tbb10interface98internal9start_forINS_13blocked_rangeIiEENS_8internal17parallel_for_bodyIZ4mainEUliE_iEEKNS_16auto_partitionerEEE, @object
	.size	_ZTSN3tbb10interface98internal9start_forINS_13blocked_rangeIiEENS_8internal17parallel_for_bodyIZ4mainEUliE_iEEKNS_16auto_partitionerEEE, 133
_ZTSN3tbb10interface98internal9start_forINS_13blocked_rangeIiEENS_8internal17parallel_for_bodyIZ4mainEUliE_iEEKNS_16auto_partitionerEEE:
	.string	"*N3tbb10interface98internal9start_forINS_13blocked_rangeIiEENS_8internal17parallel_for_bodyIZ4mainEUliE_iEEKNS_16auto_partitionerEEE"
	.weak	_ZTVN3tbb10interface98internal9flag_taskE
	.section	.rodata._ZTVN3tbb10interface98internal9flag_taskE,"aG",@progbits,_ZTVN3tbb10interface98internal9flag_taskE,comdat
	.align 8
	.type	_ZTVN3tbb10interface98internal9flag_taskE, @object
	.size	_ZTVN3tbb10interface98internal9flag_taskE, 48
_ZTVN3tbb10interface98internal9flag_taskE:
	.quad	0
	.quad	_ZTIN3tbb10interface98internal9flag_taskE
	.quad	_ZN3tbb10interface98internal9flag_taskD1Ev
	.quad	_ZN3tbb10interface98internal9flag_taskD0Ev
	.quad	_ZN3tbb10interface98internal9flag_task7executeEv
	.quad	_ZN3tbb4task13note_affinityEt
	.section	.rodata
	.align 8
	.type	_ZTVN3tbb10interface98internal9start_forINS_13blocked_rangeIiEENS_8internal17parallel_for_bodyIZZ4mainENKUliE_clEiEUliE_iEEKNS_16auto_partitionerEEE, @object
	.size	_ZTVN3tbb10interface98internal9start_forINS_13blocked_rangeIiEENS_8internal17parallel_for_bodyIZZ4mainENKUliE_clEiEUliE_iEEKNS_16auto_partitionerEEE, 48
_ZTVN3tbb10interface98internal9start_forINS_13blocked_rangeIiEENS_8internal17parallel_for_bodyIZZ4mainENKUliE_clEiEUliE_iEEKNS_16auto_partitionerEEE:
	.quad	0
	.quad	_ZTIN3tbb10interface98internal9start_forINS_13blocked_rangeIiEENS_8internal17parallel_for_bodyIZZ4mainENKUliE_clEiEUliE_iEEKNS_16auto_partitionerEEE
	.quad	_ZN3tbb10interface98internal9start_forINS_13blocked_rangeIiEENS_8internal17parallel_for_bodyIZZ4mainENKUliE_clEiEUliE_iEEKNS_16auto_partitionerEED1Ev
	.quad	_ZN3tbb10interface98internal9start_forINS_13blocked_rangeIiEENS_8internal17parallel_for_bodyIZZ4mainENKUliE_clEiEUliE_iEEKNS_16auto_partitionerEED0Ev
	.quad	_ZN3tbb10interface98internal9start_forINS_13blocked_rangeIiEENS_8internal17parallel_for_bodyIZZ4mainENKUliE_clEiEUliE_iEEKNS_16auto_partitionerEE7executeEv
	.quad	_ZN3tbb10interface98internal9start_forINS_13blocked_rangeIiEENS_8internal17parallel_for_bodyIZZ4mainENKUliE_clEiEUliE_iEEKNS_16auto_partitionerEE13note_affinityEt
	.align 8
	.type	_ZTVN3tbb10interface98internal9start_forINS_13blocked_rangeIiEENS_8internal17parallel_for_bodyIZ4mainEUliE_iEEKNS_16auto_partitionerEEE, @object
	.size	_ZTVN3tbb10interface98internal9start_forINS_13blocked_rangeIiEENS_8internal17parallel_for_bodyIZ4mainEUliE_iEEKNS_16auto_partitionerEEE, 48
_ZTVN3tbb10interface98internal9start_forINS_13blocked_rangeIiEENS_8internal17parallel_for_bodyIZ4mainEUliE_iEEKNS_16auto_partitionerEEE:
	.quad	0
	.quad	_ZTIN3tbb10interface98internal9start_forINS_13blocked_rangeIiEENS_8internal17parallel_for_bodyIZ4mainEUliE_iEEKNS_16auto_partitionerEEE
	.quad	_ZN3tbb10interface98internal9start_forINS_13blocked_rangeIiEENS_8internal17parallel_for_bodyIZ4mainEUliE_iEEKNS_16auto_partitionerEED1Ev
	.quad	_ZN3tbb10interface98internal9start_forINS_13blocked_rangeIiEENS_8internal17parallel_for_bodyIZ4mainEUliE_iEEKNS_16auto_partitionerEED0Ev
	.quad	_ZN3tbb10interface98internal9start_forINS_13blocked_rangeIiEENS_8internal17parallel_for_bodyIZ4mainEUliE_iEEKNS_16auto_partitionerEE7executeEv
	.quad	_ZN3tbb10interface98internal9start_forINS_13blocked_rangeIiEENS_8internal17parallel_for_bodyIZ4mainEUliE_iEEKNS_16auto_partitionerEE13note_affinityEt
	.local	_ZStL8__ioinit
	.comm	_ZStL8__ioinit,1,1
	.section	.rodata.cst8,"aM",@progbits,8
	.align 8
.LC23:
	.long	0
	.long	1093567616
	.hidden	__dso_handle
	.ident	"GCC: (Ubuntu 5.4.0-6ubuntu1~16.04.11) 5.4.0 20160609"
	.section	.note.GNU-stack,"",@progbits
